	.file	"main.i"
	.text
	.section	.text$_ZNSt11char_traitsIcE6assignERcRKc,"x"
	.linkonce discard
	.globl	_ZNSt11char_traitsIcE6assignERcRKc
	.def	_ZNSt11char_traitsIcE6assignERcRKc;	.scl	2;	.type	32;	.endef
	.seh_proc	_ZNSt11char_traitsIcE6assignERcRKc
_ZNSt11char_traitsIcE6assignERcRKc:
.LFB859:
	pushq	%rbp
	.seh_pushreg	%rbp
	movq	%rsp, %rbp
	.seh_setframe	%rbp, 0
	.seh_endprologue
	movq	%rcx, 16(%rbp)
	movq	%rdx, 24(%rbp)
	movq	24(%rbp), %rax
	movzbl	(%rax), %edx
	movq	16(%rbp), %rax
	movb	%dl, (%rax)
	nop
	popq	%rbp
	ret
	.seh_endproc
	.section	.text$_ZNSt11char_traitsIcE6lengthEPKc,"x"
	.linkonce discard
	.globl	_ZNSt11char_traitsIcE6lengthEPKc
	.def	_ZNSt11char_traitsIcE6lengthEPKc;	.scl	2;	.type	32;	.endef
	.seh_proc	_ZNSt11char_traitsIcE6lengthEPKc
_ZNSt11char_traitsIcE6lengthEPKc:
.LFB863:
	pushq	%rbp
	.seh_pushreg	%rbp
	movq	%rsp, %rbp
	.seh_setframe	%rbp, 0
	subq	$32, %rsp
	.seh_stackalloc	32
	.seh_endprologue
	movq	%rcx, 16(%rbp)
	movl	$0, %eax
	testb	%al, %al
	je	.L4
	movq	16(%rbp), %rax
	movq	%rax, %rcx
	call	_ZN9__gnu_cxx11char_traitsIcE6lengthEPKc
	jmp	.L5
.L4:
	movq	16(%rbp), %rax
	movq	%rax, %rcx
	call	strlen
	nop
.L5:
	addq	$32, %rsp
	popq	%rbp
	ret
	.seh_endproc
	.section	.text$_ZNSt11char_traitsIcE4copyEPcPKcy,"x"
	.linkonce discard
	.globl	_ZNSt11char_traitsIcE4copyEPcPKcy
	.def	_ZNSt11char_traitsIcE4copyEPcPKcy;	.scl	2;	.type	32;	.endef
	.seh_proc	_ZNSt11char_traitsIcE4copyEPcPKcy
_ZNSt11char_traitsIcE4copyEPcPKcy:
.LFB866:
	pushq	%rbp
	.seh_pushreg	%rbp
	movq	%rsp, %rbp
	.seh_setframe	%rbp, 0
	subq	$32, %rsp
	.seh_stackalloc	32
	.seh_endprologue
	movq	%rcx, 16(%rbp)
	movq	%rdx, 24(%rbp)
	movq	%r8, 32(%rbp)
	cmpq	$0, 32(%rbp)
	jne	.L7
	movq	16(%rbp), %rax
	jmp	.L8
.L7:
	movq	16(%rbp), %rdx
	movq	24(%rbp), %rax
	movq	%rdx, %rcx
	movq	%rax, %rdx
	movq	32(%rbp), %rax
	movq	%rax, %r8
	call	memcpy
	nop
.L8:
	addq	$32, %rsp
	popq	%rbp
	ret
	.seh_endproc
	.section	.text$_ZStorSt13_Ios_OpenmodeS_,"x"
	.linkonce discard
	.globl	_ZStorSt13_Ios_OpenmodeS_
	.def	_ZStorSt13_Ios_OpenmodeS_;	.scl	2;	.type	32;	.endef
	.seh_proc	_ZStorSt13_Ios_OpenmodeS_
_ZStorSt13_Ios_OpenmodeS_:
.LFB2027:
	pushq	%rbp
	.seh_pushreg	%rbp
	movq	%rsp, %rbp
	.seh_setframe	%rbp, 0
	.seh_endprologue
	movl	%ecx, 16(%rbp)
	movl	%edx, 24(%rbp)
	movl	16(%rbp), %eax
	orl	24(%rbp), %eax
	popq	%rbp
	ret
	.seh_endproc
	.section .rdata,"dr"
.LC0:
	.ascii "name.txt\0"
.LC1:
	.ascii "1 10 3 55 0 23 33\0"
	.text
	.globl	main
	.def	main;	.scl	2;	.type	32;	.endef
	.seh_proc	main
main:
.LFB3664:
	pushq	%rbp
	.seh_pushreg	%rbp
	pushq	%rdi
	.seh_pushreg	%rdi
	pushq	%rsi
	.seh_pushreg	%rsi
	pushq	%rbx
	.seh_pushreg	%rbx
	subq	$1064, %rsp
	.seh_stackalloc	1064
	leaq	128(%rsp), %rbp
	.seh_setframe	%rbp, 128
	.seh_endprologue
	call	__main
	leaq	C.0.0(%rip), %rsi
	movl	$7, %edi
	leaq	902(%rbp), %rax
	movq	%rax, 912(%rbp)
	nop
	nop
	movq	%rsi, -96(%rbp)
	movq	%rdi, -88(%rbp)
	leaq	902(%rbp), %rcx
	leaq	-96(%rbp), %rdx
	leaq	864(%rbp), %rax
	movq	%rcx, %r8
	movq	%rax, %rcx
.LEHB0:
	call	_ZNSt6vectorIiSaIiEEC1ESt16initializer_listIiERKS0_
.LEHE0:
	leaq	902(%rbp), %rax
	movq	%rax, %rcx
	call	_ZNSt15__new_allocatorIiED2Ev
	nop
	leaq	.LC0(%rip), %rdx
	leaq	384(%rbp), %rax
	movl	$16, %r8d
	movq	%rax, %rcx
.LEHB1:
	call	_ZNSt14basic_ofstreamIcSt11char_traitsIcEEC1EPKcSt13_Ios_Openmode
.LEHE1:
	leaq	903(%rbp), %rax
	movq	%rax, 904(%rbp)
	nop
	nop
	leaq	903(%rbp), %rcx
	leaq	.LC1(%rip), %rdx
	leaq	352(%rbp), %rax
	movq	%rcx, %r8
	movq	%rax, %rcx
.LEHB2:
	call	_ZNSt7__cxx1112basic_stringIcSt11char_traitsIcESaIcEEC1IS3_EEPKcRKS3_
.LEHE2:
	leaq	903(%rbp), %rax
	movq	%rax, %rcx
	call	_ZNSt15__new_allocatorIcED2Ev
	nop
	movl	$8, %edx
	movl	$16, %ecx
	call	_ZStorSt13_Ios_OpenmodeS_
	movl	%eax, %ecx
	leaq	352(%rbp), %rdx
	leaq	-48(%rbp), %rax
	movl	%ecx, %r8d
	movq	%rax, %rcx
.LEHB3:
	call	_ZNSt7__cxx1118basic_stringstreamIcSt11char_traitsIcESaIcEEC1ERKNS_12basic_stringIcS2_S3_EESt13_Ios_Openmode
.LEHE3:
	leaq	-80(%rbp), %rax
	leaq	384(%rbp), %rcx
	leaq	-48(%rbp), %rdx
	movq	%rcx, %r8
	movq	%rax, %rcx
.LEHB4:
	call	_Z16list_with_changeRSiRSo
.LEHE4:
	leaq	384(%rbp), %rax
	movq	%rax, %rcx
.LEHB5:
	call	_ZNSo5flushEv
	leaq	384(%rbp), %rax
	movq	%rax, %rcx
	call	_ZNSt14basic_ofstreamIcSt11char_traitsIcEE5closeEv
	leaq	864(%rbp), %rdx
	leaq	-80(%rbp), %rax
	movq	%rax, %rcx
	call	_ZSteqIiSaIiEEbRKSt6vectorIT_T0_ES6_
.LEHE5:
	movb	%al, 927(%rbp)
	movl	$0, %ebx
	leaq	-80(%rbp), %rax
	movq	%rax, %rcx
	call	_ZNSt6vectorIiSaIiEED1Ev
	leaq	-48(%rbp), %rax
	movq	%rax, %rcx
	call	_ZNSt7__cxx1118basic_stringstreamIcSt11char_traitsIcESaIcEED1Ev
	leaq	352(%rbp), %rax
	movq	%rax, %rcx
	call	_ZNSt7__cxx1112basic_stringIcSt11char_traitsIcESaIcEED1Ev
	leaq	384(%rbp), %rax
	movq	%rax, %rcx
	call	_ZNSt14basic_ofstreamIcSt11char_traitsIcEED1Ev
	leaq	864(%rbp), %rax
	movq	%rax, %rcx
	call	_ZNSt6vectorIiSaIiEED1Ev
	movl	%ebx, %eax
	jmp	.L26
.L20:
	movq	%rax, %rbx
	leaq	902(%rbp), %rax
	movq	%rax, %rcx
	call	_ZNSt15__new_allocatorIiED2Ev
	nop
	movq	%rbx, %rax
	movq	%rax, %rcx
.LEHB6:
	call	_Unwind_Resume
.L22:
	movq	%rax, %rbx
	leaq	903(%rbp), %rax
	movq	%rax, %rcx
	call	_ZNSt15__new_allocatorIcED2Ev
	nop
	jmp	.L15
.L25:
	movq	%rax, %rbx
	leaq	-80(%rbp), %rax
	movq	%rax, %rcx
	call	_ZNSt6vectorIiSaIiEED1Ev
	jmp	.L17
.L24:
	movq	%rax, %rbx
.L17:
	leaq	-48(%rbp), %rax
	movq	%rax, %rcx
	call	_ZNSt7__cxx1118basic_stringstreamIcSt11char_traitsIcESaIcEED1Ev
	jmp	.L18
.L23:
	movq	%rax, %rbx
.L18:
	leaq	352(%rbp), %rax
	movq	%rax, %rcx
	call	_ZNSt7__cxx1112basic_stringIcSt11char_traitsIcESaIcEED1Ev
.L15:
	leaq	384(%rbp), %rax
	movq	%rax, %rcx
	call	_ZNSt14basic_ofstreamIcSt11char_traitsIcEED1Ev
	jmp	.L19
.L21:
	movq	%rax, %rbx
.L19:
	leaq	864(%rbp), %rax
	movq	%rax, %rcx
	call	_ZNSt6vectorIiSaIiEED1Ev
	movq	%rbx, %rax
	movq	%rax, %rcx
	call	_Unwind_Resume
.LEHE6:
.L26:
	addq	$1064, %rsp
	popq	%rbx
	popq	%rsi
	popq	%rdi
	popq	%rbp
	ret
	.seh_handler	__gxx_personality_seh0, @unwind, @except
	.seh_handlerdata
.LLSDA3664:
	.byte	0xff
	.byte	0xff
	.byte	0x1
	.uleb128 .LLSDACSE3664-.LLSDACSB3664
.LLSDACSB3664:
	.uleb128 .LEHB0-.LFB3664
	.uleb128 .LEHE0-.LEHB0
	.uleb128 .L20-.LFB3664
	.uleb128 0
	.uleb128 .LEHB1-.LFB3664
	.uleb128 .LEHE1-.LEHB1
	.uleb128 .L21-.LFB3664
	.uleb128 0
	.uleb128 .LEHB2-.LFB3664
	.uleb128 .LEHE2-.LEHB2
	.uleb128 .L22-.LFB3664
	.uleb128 0
	.uleb128 .LEHB3-.LFB3664
	.uleb128 .LEHE3-.LEHB3
	.uleb128 .L23-.LFB3664
	.uleb128 0
	.uleb128 .LEHB4-.LFB3664
	.uleb128 .LEHE4-.LEHB4
	.uleb128 .L24-.LFB3664
	.uleb128 0
	.uleb128 .LEHB5-.LFB3664
	.uleb128 .LEHE5-.LEHB5
	.uleb128 .L25-.LFB3664
	.uleb128 0
	.uleb128 .LEHB6-.LFB3664
	.uleb128 .LEHE6-.LEHB6
	.uleb128 0
	.uleb128 0
.LLSDACSE3664:
	.text
	.seh_endproc
	.section	.text$_ZN9__gnu_cxx11char_traitsIcE6lengthEPKc,"x"
	.linkonce discard
	.align 2
	.globl	_ZN9__gnu_cxx11char_traitsIcE6lengthEPKc
	.def	_ZN9__gnu_cxx11char_traitsIcE6lengthEPKc;	.scl	2;	.type	32;	.endef
	.seh_proc	_ZN9__gnu_cxx11char_traitsIcE6lengthEPKc
_ZN9__gnu_cxx11char_traitsIcE6lengthEPKc:
.LFB3665:
	pushq	%rbp
	.seh_pushreg	%rbp
	movq	%rsp, %rbp
	.seh_setframe	%rbp, 0
	subq	$48, %rsp
	.seh_stackalloc	48
	.seh_endprologue
	movq	%rcx, 16(%rbp)
	movq	$0, -8(%rbp)
	jmp	.L28
.L29:
	addq	$1, -8(%rbp)
.L28:
	movb	$0, -9(%rbp)
	movq	16(%rbp), %rdx
	movq	-8(%rbp), %rax
	leaq	(%rdx,%rax), %rcx
	leaq	-9(%rbp), %rax
	movq	%rax, %rdx
	call	_ZN9__gnu_cxx11char_traitsIcE2eqERKcS3_
	xorl	$1, %eax
	testb	%al, %al
	jne	.L29
	movq	-8(%rbp), %rax
	addq	$48, %rsp
	popq	%rbp
	ret
	.seh_endproc
	.section	.text$_ZNSt7__cxx1112basic_stringIcSt11char_traitsIcESaIcEE12_Alloc_hiderD1Ev,"x"
	.linkonce discard
	.align 2
	.globl	_ZNSt7__cxx1112basic_stringIcSt11char_traitsIcESaIcEE12_Alloc_hiderD1Ev
	.def	_ZNSt7__cxx1112basic_stringIcSt11char_traitsIcESaIcEE12_Alloc_hiderD1Ev;	.scl	2;	.type	32;	.endef
	.seh_proc	_ZNSt7__cxx1112basic_stringIcSt11char_traitsIcESaIcEE12_Alloc_hiderD1Ev
_ZNSt7__cxx1112basic_stringIcSt11char_traitsIcESaIcEE12_Alloc_hiderD1Ev:
.LFB3767:
	pushq	%rbp
	.seh_pushreg	%rbp
	movq	%rsp, %rbp
	.seh_setframe	%rbp, 0
	subq	$48, %rsp
	.seh_stackalloc	48
	.seh_endprologue
	movq	%rcx, 16(%rbp)
	movq	16(%rbp), %rax
	movq	%rax, -8(%rbp)
	movq	-8(%rbp), %rax
	movq	%rax, %rcx
	call	_ZNSt15__new_allocatorIcED2Ev
	nop
	nop
	addq	$48, %rsp
	popq	%rbp
	ret
	.seh_endproc
	.section	.text$_ZNSt7__cxx1112basic_stringIcSt11char_traitsIcESaIcEED1Ev,"x"
	.linkonce discard
	.align 2
	.globl	_ZNSt7__cxx1112basic_stringIcSt11char_traitsIcESaIcEED1Ev
	.def	_ZNSt7__cxx1112basic_stringIcSt11char_traitsIcESaIcEED1Ev;	.scl	2;	.type	32;	.endef
	.seh_proc	_ZNSt7__cxx1112basic_stringIcSt11char_traitsIcESaIcEED1Ev
_ZNSt7__cxx1112basic_stringIcSt11char_traitsIcESaIcEED1Ev:
.LFB3772:
	pushq	%rbp
	.seh_pushreg	%rbp
	movq	%rsp, %rbp
	.seh_setframe	%rbp, 0
	subq	$32, %rsp
	.seh_stackalloc	32
	.seh_endprologue
	movq	%rcx, 16(%rbp)
	movq	16(%rbp), %rax
	movq	%rax, %rcx
	call	_ZNSt7__cxx1112basic_stringIcSt11char_traitsIcESaIcEE10_M_disposeEv
	movq	16(%rbp), %rax
	movq	%rax, %rcx
	call	_ZNSt7__cxx1112basic_stringIcSt11char_traitsIcESaIcEE12_Alloc_hiderD1Ev
	nop
	addq	$32, %rsp
	popq	%rbp
	ret
	.seh_handler	__gxx_personality_seh0, @unwind, @except
	.seh_handlerdata
.LLSDA3772:
	.byte	0xff
	.byte	0xff
	.byte	0x1
	.uleb128 .LLSDACSE3772-.LLSDACSB3772
.LLSDACSB3772:
.LLSDACSE3772:
	.section	.text$_ZNSt7__cxx1112basic_stringIcSt11char_traitsIcESaIcEED1Ev,"x"
	.linkonce discard
	.seh_endproc
	.section	.text$_ZNSt6vectorIiSaIiEEC1ESt16initializer_listIiERKS0_,"x"
	.linkonce discard
	.align 2
	.globl	_ZNSt6vectorIiSaIiEEC1ESt16initializer_listIiERKS0_
	.def	_ZNSt6vectorIiSaIiEEC1ESt16initializer_listIiERKS0_;	.scl	2;	.type	32;	.endef
	.seh_proc	_ZNSt6vectorIiSaIiEEC1ESt16initializer_listIiERKS0_
_ZNSt6vectorIiSaIiEEC1ESt16initializer_listIiERKS0_:
.LFB4016:
	pushq	%rbp
	.seh_pushreg	%rbp
	pushq	%rsi
	.seh_pushreg	%rsi
	pushq	%rbx
	.seh_pushreg	%rbx
	subq	$48, %rsp
	.seh_stackalloc	48
	leaq	48(%rsp), %rbp
	.seh_setframe	%rbp, 48
	.seh_endprologue
	movq	%rcx, 32(%rbp)
	movq	%rdx, %rbx
	movq	(%rbx), %rax
	movq	8(%rbx), %rdx
	movq	%rax, -16(%rbp)
	movq	%rdx, -8(%rbp)
	movq	%r8, 48(%rbp)
	movq	32(%rbp), %rax
	movq	48(%rbp), %rdx
	movq	%rax, %rcx
	call	_ZNSt12_Vector_baseIiSaIiEEC2ERKS0_
	leaq	-16(%rbp), %rax
	movq	%rax, %rcx
	call	_ZNKSt16initializer_listIiE4sizeEv
	movq	%rax, %rsi
	leaq	-16(%rbp), %rax
	movq	%rax, %rcx
	call	_ZNKSt16initializer_listIiE3endEv
	movq	%rax, %rbx
	leaq	-16(%rbp), %rax
	movq	%rax, %rcx
	call	_ZNKSt16initializer_listIiE5beginEv
	movq	%rax, %rdx
	movq	32(%rbp), %rax
	movq	%rsi, %r9
	movq	%rbx, %r8
	movq	%rax, %rcx
.LEHB7:
	call	_ZNSt6vectorIiSaIiEE21_M_range_initialize_nIPKiS4_EEvT_T0_y
.LEHE7:
	jmp	.L36
.L35:
	movq	%rax, %rbx
	movq	32(%rbp), %rax
	movq	%rax, %rcx
	call	_ZNSt12_Vector_baseIiSaIiEED2Ev
	movq	%rbx, %rax
	movq	%rax, %rcx
.LEHB8:
	call	_Unwind_Resume
	nop
.LEHE8:
.L36:
	addq	$48, %rsp
	popq	%rbx
	popq	%rsi
	popq	%rbp
	ret
	.seh_handler	__gxx_personality_seh0, @unwind, @except
	.seh_handlerdata
.LLSDA4016:
	.byte	0xff
	.byte	0xff
	.byte	0x1
	.uleb128 .LLSDACSE4016-.LLSDACSB4016
.LLSDACSB4016:
	.uleb128 .LEHB7-.LFB4016
	.uleb128 .LEHE7-.LEHB7
	.uleb128 .L35-.LFB4016
	.uleb128 0
	.uleb128 .LEHB8-.LFB4016
	.uleb128 .LEHE8-.LEHB8
	.uleb128 0
	.uleb128 0
.LLSDACSE4016:
	.section	.text$_ZNSt6vectorIiSaIiEEC1ESt16initializer_listIiERKS0_,"x"
	.linkonce discard
	.seh_endproc
	.section	.text$_ZNSt6vectorIiSaIiEED1Ev,"x"
	.linkonce discard
	.align 2
	.globl	_ZNSt6vectorIiSaIiEED1Ev
	.def	_ZNSt6vectorIiSaIiEED1Ev;	.scl	2;	.type	32;	.endef
	.seh_proc	_ZNSt6vectorIiSaIiEED1Ev
_ZNSt6vectorIiSaIiEED1Ev:
.LFB4019:
	pushq	%rbp
	.seh_pushreg	%rbp
	movq	%rsp, %rbp
	.seh_setframe	%rbp, 0
	subq	$64, %rsp
	.seh_stackalloc	64
	.seh_endprologue
	movq	%rcx, 16(%rbp)
	movq	16(%rbp), %rax
	movq	%rax, %rcx
	call	_ZNSt12_Vector_baseIiSaIiEE19_M_get_Tp_allocatorEv
	movq	16(%rbp), %rdx
	movq	8(%rdx), %rdx
	movq	16(%rbp), %rcx
	movq	(%rcx), %rcx
	movq	%rcx, -8(%rbp)
	movq	%rdx, -16(%rbp)
	movq	%rax, -24(%rbp)
	movq	-16(%rbp), %rdx
	movq	-8(%rbp), %rax
	movq	%rax, %rcx
	call	_ZSt8_DestroyIPiEvT_S1_
	nop
	movq	16(%rbp), %rax
	movq	%rax, %rcx
	call	_ZNSt12_Vector_baseIiSaIiEED2Ev
	nop
	addq	$64, %rsp
	popq	%rbp
	ret
	.seh_endproc
	.section .rdata,"dr"
	.align 8
.LC2:
	.ascii "basic_string: construction from null is not valid\0"
	.section	.text$_ZNSt7__cxx1112basic_stringIcSt11char_traitsIcESaIcEEC1IS3_EEPKcRKS3_,"x"
	.linkonce discard
	.align 2
	.globl	_ZNSt7__cxx1112basic_stringIcSt11char_traitsIcESaIcEEC1IS3_EEPKcRKS3_
	.def	_ZNSt7__cxx1112basic_stringIcSt11char_traitsIcESaIcEEC1IS3_EEPKcRKS3_;	.scl	2;	.type	32;	.endef
	.seh_proc	_ZNSt7__cxx1112basic_stringIcSt11char_traitsIcESaIcEEC1IS3_EEPKcRKS3_
_ZNSt7__cxx1112basic_stringIcSt11char_traitsIcESaIcEEC1IS3_EEPKcRKS3_:
.LFB4029:
	pushq	%rbp
	.seh_pushreg	%rbp
	pushq	%rsi
	.seh_pushreg	%rsi
	pushq	%rbx
	.seh_pushreg	%rbx
	subq	$48, %rsp
	.seh_stackalloc	48
	leaq	48(%rsp), %rbp
	.seh_setframe	%rbp, 48
	.seh_endprologue
	movq	%rcx, 32(%rbp)
	movq	%rdx, 40(%rbp)
	movq	%r8, 48(%rbp)
	movq	32(%rbp), %rbx
	movq	32(%rbp), %rax
	movq	%rax, %rcx
	call	_ZNSt7__cxx1112basic_stringIcSt11char_traitsIcESaIcEE13_M_local_dataEv
	movq	48(%rbp), %rdx
	movq	%rdx, %r8
	movq	%rax, %rdx
	movq	%rbx, %rcx
	call	_ZNSt7__cxx1112basic_stringIcSt11char_traitsIcESaIcEE12_Alloc_hiderC1EPcRKS3_
	cmpq	$0, 40(%rbp)
	jne	.L39
	leaq	.LC2(%rip), %rax
	movq	%rax, %rcx
.LEHB9:
	call	_ZSt19__throw_logic_errorPKc
.L39:
	movq	40(%rbp), %rax
	movq	%rax, %rcx
	call	_ZNSt11char_traitsIcE6lengthEPKc
	movq	40(%rbp), %rdx
	addq	%rdx, %rax
	movq	%rax, -8(%rbp)
	movq	-8(%rbp), %rcx
	movq	40(%rbp), %rdx
	movq	32(%rbp), %rax
	movl	%esi, %r9d
	movq	%rcx, %r8
	movq	%rax, %rcx
	call	_ZNSt7__cxx1112basic_stringIcSt11char_traitsIcESaIcEE12_M_constructIPKcEEvT_S8_St20forward_iterator_tag
.LEHE9:
	jmp	.L42
.L41:
	movq	%rax, %rbx
	movq	32(%rbp), %rax
	movq	%rax, %rcx
	call	_ZNSt7__cxx1112basic_stringIcSt11char_traitsIcESaIcEE12_Alloc_hiderD1Ev
	movq	%rbx, %rax
	movq	%rax, %rcx
.LEHB10:
	call	_Unwind_Resume
	nop
.LEHE10:
.L42:
	addq	$48, %rsp
	popq	%rbx
	popq	%rsi
	popq	%rbp
	ret
	.seh_handler	__gxx_personality_seh0, @unwind, @except
	.seh_handlerdata
.LLSDA4029:
	.byte	0xff
	.byte	0xff
	.byte	0x1
	.uleb128 .LLSDACSE4029-.LLSDACSB4029
.LLSDACSB4029:
	.uleb128 .LEHB9-.LFB4029
	.uleb128 .LEHE9-.LEHB9
	.uleb128 .L41-.LFB4029
	.uleb128 0
	.uleb128 .LEHB10-.LFB4029
	.uleb128 .LEHE10-.LEHB10
	.uleb128 0
	.uleb128 0
.LLSDACSE4029:
	.section	.text$_ZNSt7__cxx1112basic_stringIcSt11char_traitsIcESaIcEEC1IS3_EEPKcRKS3_,"x"
	.linkonce discard
	.seh_endproc
	.section	.text$_ZSteqIiSaIiEEbRKSt6vectorIT_T0_ES6_,"x"
	.linkonce discard
	.globl	_ZSteqIiSaIiEEbRKSt6vectorIT_T0_ES6_
	.def	_ZSteqIiSaIiEEbRKSt6vectorIT_T0_ES6_;	.scl	2;	.type	32;	.endef
	.seh_proc	_ZSteqIiSaIiEEbRKSt6vectorIT_T0_ES6_
_ZSteqIiSaIiEEbRKSt6vectorIT_T0_ES6_:
.LFB4042:
	pushq	%rbp
	.seh_pushreg	%rbp
	pushq	%rsi
	.seh_pushreg	%rsi
	pushq	%rbx
	.seh_pushreg	%rbx
	subq	$32, %rsp
	.seh_stackalloc	32
	leaq	32(%rsp), %rbp
	.seh_setframe	%rbp, 32
	.seh_endprologue
	movq	%rcx, 32(%rbp)
	movq	%rdx, 40(%rbp)
	movq	32(%rbp), %rax
	movq	%rax, %rcx
	call	_ZNKSt6vectorIiSaIiEE4sizeEv
	movq	%rax, %rbx
	movq	40(%rbp), %rax
	movq	%rax, %rcx
	call	_ZNKSt6vectorIiSaIiEE4sizeEv
	cmpq	%rax, %rbx
	jne	.L44
	movq	40(%rbp), %rax
	movq	%rax, %rcx
	call	_ZNKSt6vectorIiSaIiEE5beginEv
	movq	%rax, %rsi
	movq	32(%rbp), %rax
	movq	%rax, %rcx
	call	_ZNKSt6vectorIiSaIiEE3endEv
	movq	%rax, %rbx
	movq	32(%rbp), %rax
	movq	%rax, %rcx
	call	_ZNKSt6vectorIiSaIiEE5beginEv
	movq	%rsi, %r8
	movq	%rbx, %rdx
	movq	%rax, %rcx
	call	_ZSt5equalIN9__gnu_cxx17__normal_iteratorIPKiSt6vectorIiSaIiEEEES7_EbT_S8_T0_
	testb	%al, %al
	je	.L44
	movl	$1, %eax
	jmp	.L45
.L44:
	movl	$0, %eax
.L45:
	addq	$32, %rsp
	popq	%rbx
	popq	%rsi
	popq	%rbp
	ret
	.seh_endproc
	.section	.text$_ZN9__gnu_cxx11char_traitsIcE2eqERKcS3_,"x"
	.linkonce discard
	.globl	_ZN9__gnu_cxx11char_traitsIcE2eqERKcS3_
	.def	_ZN9__gnu_cxx11char_traitsIcE2eqERKcS3_;	.scl	2;	.type	32;	.endef
	.seh_proc	_ZN9__gnu_cxx11char_traitsIcE2eqERKcS3_
_ZN9__gnu_cxx11char_traitsIcE2eqERKcS3_:
.LFB4043:
	pushq	%rbp
	.seh_pushreg	%rbp
	movq	%rsp, %rbp
	.seh_setframe	%rbp, 0
	.seh_endprologue
	movq	%rcx, 16(%rbp)
	movq	%rdx, 24(%rbp)
	movq	16(%rbp), %rax
	movzbl	(%rax), %edx
	movq	24(%rbp), %rax
	movzbl	(%rax), %eax
	cmpb	%al, %dl
	sete	%al
	popq	%rbp
	ret
	.seh_endproc
	.section	.text$_ZNKSt7__cxx1112basic_stringIcSt11char_traitsIcESaIcEE7_M_dataEv,"x"
	.linkonce discard
	.align 2
	.globl	_ZNKSt7__cxx1112basic_stringIcSt11char_traitsIcESaIcEE7_M_dataEv
	.def	_ZNKSt7__cxx1112basic_stringIcSt11char_traitsIcESaIcEE7_M_dataEv;	.scl	2;	.type	32;	.endef
	.seh_proc	_ZNKSt7__cxx1112basic_stringIcSt11char_traitsIcESaIcEE7_M_dataEv
_ZNKSt7__cxx1112basic_stringIcSt11char_traitsIcESaIcEE7_M_dataEv:
.LFB4046:
	pushq	%rbp
	.seh_pushreg	%rbp
	movq	%rsp, %rbp
	.seh_setframe	%rbp, 0
	.seh_endprologue
	movq	%rcx, 16(%rbp)
	movq	16(%rbp), %rax
	movq	(%rax), %rax
	popq	%rbp
	ret
	.seh_endproc
	.section	.text$_ZNSt7__cxx1112basic_stringIcSt11char_traitsIcESaIcEE13_M_local_dataEv,"x"
	.linkonce discard
	.align 2
	.globl	_ZNSt7__cxx1112basic_stringIcSt11char_traitsIcESaIcEE13_M_local_dataEv
	.def	_ZNSt7__cxx1112basic_stringIcSt11char_traitsIcESaIcEE13_M_local_dataEv;	.scl	2;	.type	32;	.endef
	.seh_proc	_ZNSt7__cxx1112basic_stringIcSt11char_traitsIcESaIcEE13_M_local_dataEv
_ZNSt7__cxx1112basic_stringIcSt11char_traitsIcESaIcEE13_M_local_dataEv:
.LFB4047:
	pushq	%rbp
	.seh_pushreg	%rbp
	movq	%rsp, %rbp
	.seh_setframe	%rbp, 0
	subq	$32, %rsp
	.seh_stackalloc	32
	.seh_endprologue
	movq	%rcx, 16(%rbp)
	movq	16(%rbp), %rax
	addq	$16, %rax
	movq	%rax, %rcx
	call	_ZNSt19__ptr_traits_ptr_toIPccLb0EE10pointer_toERc
	addq	$32, %rsp
	popq	%rbp
	ret
	.seh_endproc
	.section	.text$_ZNSt7__cxx1112basic_stringIcSt11char_traitsIcESaIcEE13_M_set_lengthEy,"x"
	.linkonce discard
	.align 2
	.globl	_ZNSt7__cxx1112basic_stringIcSt11char_traitsIcESaIcEE13_M_set_lengthEy
	.def	_ZNSt7__cxx1112basic_stringIcSt11char_traitsIcESaIcEE13_M_set_lengthEy;	.scl	2;	.type	32;	.endef
	.seh_proc	_ZNSt7__cxx1112basic_stringIcSt11char_traitsIcESaIcEE13_M_set_lengthEy
_ZNSt7__cxx1112basic_stringIcSt11char_traitsIcESaIcEE13_M_set_lengthEy:
.LFB4052:
	pushq	%rbp
	.seh_pushreg	%rbp
	movq	%rsp, %rbp
	.seh_setframe	%rbp, 0
	subq	$48, %rsp
	.seh_stackalloc	48
	.seh_endprologue
	movq	%rcx, 16(%rbp)
	movq	%rdx, 24(%rbp)
	movq	24(%rbp), %rdx
	movq	16(%rbp), %rax
	movq	%rax, %rcx
	call	_ZNSt7__cxx1112basic_stringIcSt11char_traitsIcESaIcEE9_M_lengthEy
	movb	$0, -1(%rbp)
	movq	16(%rbp), %rax
	movq	%rax, %rcx
	call	_ZNKSt7__cxx1112basic_stringIcSt11char_traitsIcESaIcEE7_M_dataEv
	movq	24(%rbp), %rdx
	leaq	(%rax,%rdx), %rcx
	leaq	-1(%rbp), %rax
	movq	%rax, %rdx
	call	_ZNSt11char_traitsIcE6assignERcRKc
	nop
	addq	$48, %rsp
	popq	%rbp
	ret
	.seh_endproc
	.section	.text$_ZNSt7__cxx1112basic_stringIcSt11char_traitsIcESaIcEE10_M_disposeEv,"x"
	.linkonce discard
	.align 2
	.globl	_ZNSt7__cxx1112basic_stringIcSt11char_traitsIcESaIcEE10_M_disposeEv
	.def	_ZNSt7__cxx1112basic_stringIcSt11char_traitsIcESaIcEE10_M_disposeEv;	.scl	2;	.type	32;	.endef
	.seh_proc	_ZNSt7__cxx1112basic_stringIcSt11char_traitsIcESaIcEE10_M_disposeEv
_ZNSt7__cxx1112basic_stringIcSt11char_traitsIcESaIcEE10_M_disposeEv:
.LFB4053:
	pushq	%rbp
	.seh_pushreg	%rbp
	movq	%rsp, %rbp
	.seh_setframe	%rbp, 0
	subq	$32, %rsp
	.seh_stackalloc	32
	.seh_endprologue
	movq	%rcx, 16(%rbp)
	movq	16(%rbp), %rax
	movq	%rax, %rcx
	call	_ZNKSt7__cxx1112basic_stringIcSt11char_traitsIcESaIcEE11_M_is_localEv
	xorl	$1, %eax
	testb	%al, %al
	je	.L56
	movq	16(%rbp), %rax
	movq	16(%rax), %rdx
	movq	16(%rbp), %rax
	movq	%rax, %rcx
	call	_ZNSt7__cxx1112basic_stringIcSt11char_traitsIcESaIcEE10_M_destroyEy
.L56:
	nop
	addq	$32, %rsp
	popq	%rbp
	ret
	.seh_endproc
	.section	.text$_ZNSt7__cxx1112basic_stringIcSt11char_traitsIcESaIcEE16_M_get_allocatorEv,"x"
	.linkonce discard
	.align 2
	.globl	_ZNSt7__cxx1112basic_stringIcSt11char_traitsIcESaIcEE16_M_get_allocatorEv
	.def	_ZNSt7__cxx1112basic_stringIcSt11char_traitsIcESaIcEE16_M_get_allocatorEv;	.scl	2;	.type	32;	.endef
	.seh_proc	_ZNSt7__cxx1112basic_stringIcSt11char_traitsIcESaIcEE16_M_get_allocatorEv
_ZNSt7__cxx1112basic_stringIcSt11char_traitsIcESaIcEE16_M_get_allocatorEv:
.LFB4056:
	pushq	%rbp
	.seh_pushreg	%rbp
	movq	%rsp, %rbp
	.seh_setframe	%rbp, 0
	.seh_endprologue
	movq	%rcx, 16(%rbp)
	movq	16(%rbp), %rax
	popq	%rbp
	ret
	.seh_endproc
	.section	.text$_ZNKSt7__cxx1112basic_stringIcSt11char_traitsIcESaIcEE11_M_is_localEv,"x"
	.linkonce discard
	.align 2
	.globl	_ZNKSt7__cxx1112basic_stringIcSt11char_traitsIcESaIcEE11_M_is_localEv
	.def	_ZNKSt7__cxx1112basic_stringIcSt11char_traitsIcESaIcEE11_M_is_localEv;	.scl	2;	.type	32;	.endef
	.seh_proc	_ZNKSt7__cxx1112basic_stringIcSt11char_traitsIcESaIcEE11_M_is_localEv
_ZNKSt7__cxx1112basic_stringIcSt11char_traitsIcESaIcEE11_M_is_localEv:
.LFB4058:
	pushq	%rbp
	.seh_pushreg	%rbp
	pushq	%rbx
	.seh_pushreg	%rbx
	subq	$40, %rsp
	.seh_stackalloc	40
	leaq	32(%rsp), %rbp
	.seh_setframe	%rbp, 32
	.seh_endprologue
	movq	%rcx, 32(%rbp)
	movq	32(%rbp), %rax
	movq	%rax, %rcx
	call	_ZNKSt7__cxx1112basic_stringIcSt11char_traitsIcESaIcEE7_M_dataEv
	movq	%rax, %rbx
	movq	32(%rbp), %rax
	movq	%rax, %rcx
	call	_ZNKSt7__cxx1112basic_stringIcSt11char_traitsIcESaIcEE13_M_local_dataEv
	cmpq	%rax, %rbx
	sete	%al
	testb	%al, %al
	je	.L60
	movq	32(%rbp), %rax
	movq	8(%rax), %rax
	cmpq	$15, %rax
	movl	$1, %eax
	jmp	.L62
.L60:
	movl	$0, %eax
.L62:
	addq	$40, %rsp
	popq	%rbx
	popq	%rbp
	ret
	.seh_endproc
	.section	.text$_ZNSt7__cxx1112basic_stringIcSt11char_traitsIcESaIcEE7_M_dataEPc,"x"
	.linkonce discard
	.align 2
	.globl	_ZNSt7__cxx1112basic_stringIcSt11char_traitsIcESaIcEE7_M_dataEPc
	.def	_ZNSt7__cxx1112basic_stringIcSt11char_traitsIcESaIcEE7_M_dataEPc;	.scl	2;	.type	32;	.endef
	.seh_proc	_ZNSt7__cxx1112basic_stringIcSt11char_traitsIcESaIcEE7_M_dataEPc
_ZNSt7__cxx1112basic_stringIcSt11char_traitsIcESaIcEE7_M_dataEPc:
.LFB4060:
	pushq	%rbp
	.seh_pushreg	%rbp
	movq	%rsp, %rbp
	.seh_setframe	%rbp, 0
	.seh_endprologue
	movq	%rcx, 16(%rbp)
	movq	%rdx, 24(%rbp)
	movq	16(%rbp), %rax
	movq	24(%rbp), %rdx
	movq	%rdx, (%rax)
	nop
	popq	%rbp
	ret
	.seh_endproc
	.section	.text$_ZNSt7__cxx1112basic_stringIcSt11char_traitsIcESaIcEE11_M_capacityEy,"x"
	.linkonce discard
	.align 2
	.globl	_ZNSt7__cxx1112basic_stringIcSt11char_traitsIcESaIcEE11_M_capacityEy
	.def	_ZNSt7__cxx1112basic_stringIcSt11char_traitsIcESaIcEE11_M_capacityEy;	.scl	2;	.type	32;	.endef
	.seh_proc	_ZNSt7__cxx1112basic_stringIcSt11char_traitsIcESaIcEE11_M_capacityEy
_ZNSt7__cxx1112basic_stringIcSt11char_traitsIcESaIcEE11_M_capacityEy:
.LFB4061:
	pushq	%rbp
	.seh_pushreg	%rbp
	movq	%rsp, %rbp
	.seh_setframe	%rbp, 0
	.seh_endprologue
	movq	%rcx, 16(%rbp)
	movq	%rdx, 24(%rbp)
	movq	16(%rbp), %rax
	movq	24(%rbp), %rdx
	movq	%rdx, 16(%rax)
	nop
	popq	%rbp
	ret
	.seh_endproc
	.section	.text$_ZNSt7__cxx1112basic_stringIcSt11char_traitsIcESaIcEE9_M_lengthEy,"x"
	.linkonce discard
	.align 2
	.globl	_ZNSt7__cxx1112basic_stringIcSt11char_traitsIcESaIcEE9_M_lengthEy
	.def	_ZNSt7__cxx1112basic_stringIcSt11char_traitsIcESaIcEE9_M_lengthEy;	.scl	2;	.type	32;	.endef
	.seh_proc	_ZNSt7__cxx1112basic_stringIcSt11char_traitsIcESaIcEE9_M_lengthEy
_ZNSt7__cxx1112basic_stringIcSt11char_traitsIcESaIcEE9_M_lengthEy:
.LFB4062:
	pushq	%rbp
	.seh_pushreg	%rbp
	movq	%rsp, %rbp
	.seh_setframe	%rbp, 0
	.seh_endprologue
	movq	%rcx, 16(%rbp)
	movq	%rdx, 24(%rbp)
	movq	16(%rbp), %rax
	movq	24(%rbp), %rdx
	movq	%rdx, 8(%rax)
	nop
	popq	%rbp
	ret
	.seh_endproc
	.section	.text$_ZNSt15__new_allocatorIcED2Ev,"x"
	.linkonce discard
	.align 2
	.globl	_ZNSt15__new_allocatorIcED2Ev
	.def	_ZNSt15__new_allocatorIcED2Ev;	.scl	2;	.type	32;	.endef
	.seh_proc	_ZNSt15__new_allocatorIcED2Ev
_ZNSt15__new_allocatorIcED2Ev:
.LFB4098:
	pushq	%rbp
	.seh_pushreg	%rbp
	movq	%rsp, %rbp
	.seh_setframe	%rbp, 0
	.seh_endprologue
	movq	%rcx, 16(%rbp)
	nop
	popq	%rbp
	ret
	.seh_endproc
	.section	.text$_ZNSt7__cxx1112basic_stringIcSt11char_traitsIcESaIcEE12_Alloc_hiderC1EPcRKS3_,"x"
	.linkonce discard
	.align 2
	.globl	_ZNSt7__cxx1112basic_stringIcSt11char_traitsIcESaIcEE12_Alloc_hiderC1EPcRKS3_
	.def	_ZNSt7__cxx1112basic_stringIcSt11char_traitsIcESaIcEE12_Alloc_hiderC1EPcRKS3_;	.scl	2;	.type	32;	.endef
	.seh_proc	_ZNSt7__cxx1112basic_stringIcSt11char_traitsIcESaIcEE12_Alloc_hiderC1EPcRKS3_
_ZNSt7__cxx1112basic_stringIcSt11char_traitsIcESaIcEE12_Alloc_hiderC1EPcRKS3_:
.LFB4102:
	pushq	%rbp
	.seh_pushreg	%rbp
	movq	%rsp, %rbp
	.seh_setframe	%rbp, 0
	subq	$32, %rsp
	.seh_stackalloc	32
	.seh_endprologue
	movq	%rcx, 16(%rbp)
	movq	%rdx, 24(%rbp)
	movq	%r8, 32(%rbp)
	movq	16(%rbp), %rax
	movq	%rax, -8(%rbp)
	movq	32(%rbp), %rax
	movq	%rax, -16(%rbp)
	movq	-8(%rbp), %rax
	movq	%rax, -24(%rbp)
	movq	-16(%rbp), %rax
	movq	%rax, -32(%rbp)
	nop
	nop
	movq	16(%rbp), %rax
	movq	24(%rbp), %rdx
	movq	%rdx, (%rax)
	nop
	addq	$32, %rsp
	popq	%rbp
	ret
	.seh_endproc
	.section	.text$_ZZNSt7__cxx1112basic_stringIcSt11char_traitsIcESaIcEE12_M_constructIPKcEEvT_S8_St20forward_iterator_tagEN6_GuardC1EPS4_,"x"
	.linkonce discard
	.align 2
	.globl	_ZZNSt7__cxx1112basic_stringIcSt11char_traitsIcESaIcEE12_M_constructIPKcEEvT_S8_St20forward_iterator_tagEN6_GuardC1EPS4_
	.def	_ZZNSt7__cxx1112basic_stringIcSt11char_traitsIcESaIcEE12_M_constructIPKcEEvT_S8_St20forward_iterator_tagEN6_GuardC1EPS4_;	.scl	2;	.type	32;	.endef
	.seh_proc	_ZZNSt7__cxx1112basic_stringIcSt11char_traitsIcESaIcEE12_M_constructIPKcEEvT_S8_St20forward_iterator_tagEN6_GuardC1EPS4_
_ZZNSt7__cxx1112basic_stringIcSt11char_traitsIcESaIcEE12_M_constructIPKcEEvT_S8_St20forward_iterator_tagEN6_GuardC1EPS4_:
.LFB4106:
	pushq	%rbp
	.seh_pushreg	%rbp
	movq	%rsp, %rbp
	.seh_setframe	%rbp, 0
	.seh_endprologue
	movq	%rcx, 16(%rbp)
	movq	%rdx, 24(%rbp)
	movq	16(%rbp), %rax
	movq	24(%rbp), %rdx
	movq	%rdx, (%rax)
	nop
	popq	%rbp
	ret
	.seh_endproc
	.section	.text$_ZZNSt7__cxx1112basic_stringIcSt11char_traitsIcESaIcEE12_M_constructIPKcEEvT_S8_St20forward_iterator_tagEN6_GuardD1Ev,"x"
	.linkonce discard
	.align 2
	.globl	_ZZNSt7__cxx1112basic_stringIcSt11char_traitsIcESaIcEE12_M_constructIPKcEEvT_S8_St20forward_iterator_tagEN6_GuardD1Ev
	.def	_ZZNSt7__cxx1112basic_stringIcSt11char_traitsIcESaIcEE12_M_constructIPKcEEvT_S8_St20forward_iterator_tagEN6_GuardD1Ev;	.scl	2;	.type	32;	.endef
	.seh_proc	_ZZNSt7__cxx1112basic_stringIcSt11char_traitsIcESaIcEE12_M_constructIPKcEEvT_S8_St20forward_iterator_tagEN6_GuardD1Ev
_ZZNSt7__cxx1112basic_stringIcSt11char_traitsIcESaIcEE12_M_constructIPKcEEvT_S8_St20forward_iterator_tagEN6_GuardD1Ev:
.LFB4109:
	pushq	%rbp
	.seh_pushreg	%rbp
	movq	%rsp, %rbp
	.seh_setframe	%rbp, 0
	subq	$32, %rsp
	.seh_stackalloc	32
	.seh_endprologue
	movq	%rcx, 16(%rbp)
	movq	16(%rbp), %rax
	movq	(%rax), %rax
	testq	%rax, %rax
	je	.L71
	movq	16(%rbp), %rax
	movq	(%rax), %rax
	movq	%rax, %rcx
	call	_ZNSt7__cxx1112basic_stringIcSt11char_traitsIcESaIcEE10_M_disposeEv
.L71:
	nop
	addq	$32, %rsp
	popq	%rbp
	ret
	.seh_handler	__gxx_personality_seh0, @unwind, @except
	.seh_handlerdata
.LLSDA4109:
	.byte	0xff
	.byte	0xff
	.byte	0x1
	.uleb128 .LLSDACSE4109-.LLSDACSB4109
.LLSDACSB4109:
.LLSDACSE4109:
	.section	.text$_ZZNSt7__cxx1112basic_stringIcSt11char_traitsIcESaIcEE12_M_constructIPKcEEvT_S8_St20forward_iterator_tagEN6_GuardD1Ev,"x"
	.linkonce discard
	.seh_endproc
	.section	.text$_ZNSt7__cxx1112basic_stringIcSt11char_traitsIcESaIcEE12_M_constructIPKcEEvT_S8_St20forward_iterator_tag,"x"
	.linkonce discard
	.align 2
	.globl	_ZNSt7__cxx1112basic_stringIcSt11char_traitsIcESaIcEE12_M_constructIPKcEEvT_S8_St20forward_iterator_tag
	.def	_ZNSt7__cxx1112basic_stringIcSt11char_traitsIcESaIcEE12_M_constructIPKcEEvT_S8_St20forward_iterator_tag;	.scl	2;	.type	32;	.endef
	.seh_proc	_ZNSt7__cxx1112basic_stringIcSt11char_traitsIcESaIcEE12_M_constructIPKcEEvT_S8_St20forward_iterator_tag
_ZNSt7__cxx1112basic_stringIcSt11char_traitsIcESaIcEE12_M_constructIPKcEEvT_S8_St20forward_iterator_tag:
.LFB4103:
	pushq	%rbp
	.seh_pushreg	%rbp
	movq	%rsp, %rbp
	.seh_setframe	%rbp, 0
	subq	$96, %rsp
	.seh_stackalloc	96
	.seh_endprologue
	movq	%rcx, 16(%rbp)
	movq	%rdx, 24(%rbp)
	movq	%r8, 32(%rbp)
	movq	24(%rbp), %rax
	movq	%rax, -56(%rbp)
	movq	32(%rbp), %rax
	movq	%rax, -8(%rbp)
	nop
	movq	-56(%rbp), %rax
	movq	%rax, -16(%rbp)
	movq	-8(%rbp), %rax
	movq	%rax, -24(%rbp)
	movq	-24(%rbp), %rax
	subq	-16(%rbp), %rax
	nop
	movq	%rax, -40(%rbp)
	movq	-40(%rbp), %rax
	cmpq	$15, %rax
	jbe	.L76
	leaq	-40(%rbp), %rdx
	movq	16(%rbp), %rax
	movl	$0, %r8d
	movq	%rax, %rcx
	call	_ZNSt7__cxx1112basic_stringIcSt11char_traitsIcESaIcEE9_M_createERyy
	movq	%rax, %rdx
	movq	16(%rbp), %rax
	movq	%rax, %rcx
	call	_ZNSt7__cxx1112basic_stringIcSt11char_traitsIcESaIcEE7_M_dataEPc
	movq	-40(%rbp), %rdx
	movq	16(%rbp), %rax
	movq	%rax, %rcx
	call	_ZNSt7__cxx1112basic_stringIcSt11char_traitsIcESaIcEE11_M_capacityEy
	jmp	.L77
.L76:
	movq	16(%rbp), %rax
	movq	%rax, -32(%rbp)
	nop
.L77:
	movq	16(%rbp), %rdx
	leaq	-48(%rbp), %rax
	movq	%rax, %rcx
	call	_ZZNSt7__cxx1112basic_stringIcSt11char_traitsIcESaIcEE12_M_constructIPKcEEvT_S8_St20forward_iterator_tagEN6_GuardC1EPS4_
	movq	16(%rbp), %rax
	movq	%rax, %rcx
	call	_ZNKSt7__cxx1112basic_stringIcSt11char_traitsIcESaIcEE7_M_dataEv
	movq	%rax, %rcx
	movq	32(%rbp), %rdx
	movq	24(%rbp), %rax
	movq	%rdx, %r8
	movq	%rax, %rdx
	call	_ZNSt7__cxx1112basic_stringIcSt11char_traitsIcESaIcEE13_S_copy_charsIPKcEEvPcT_S9_
	movq	$0, -48(%rbp)
	movq	-40(%rbp), %rdx
	movq	16(%rbp), %rax
	movq	%rax, %rcx
	call	_ZNSt7__cxx1112basic_stringIcSt11char_traitsIcESaIcEE13_M_set_lengthEy
	leaq	-48(%rbp), %rax
	movq	%rax, %rcx
	call	_ZZNSt7__cxx1112basic_stringIcSt11char_traitsIcESaIcEE12_M_constructIPKcEEvT_S8_St20forward_iterator_tagEN6_GuardD1Ev
	nop
	addq	$96, %rsp
	popq	%rbp
	ret
	.seh_endproc
	.section	.text$_ZNSt15__new_allocatorIiED2Ev,"x"
	.linkonce discard
	.align 2
	.globl	_ZNSt15__new_allocatorIiED2Ev
	.def	_ZNSt15__new_allocatorIiED2Ev;	.scl	2;	.type	32;	.endef
	.seh_proc	_ZNSt15__new_allocatorIiED2Ev
_ZNSt15__new_allocatorIiED2Ev:
.LFB4212:
	pushq	%rbp
	.seh_pushreg	%rbp
	movq	%rsp, %rbp
	.seh_setframe	%rbp, 0
	.seh_endprologue
	movq	%rcx, 16(%rbp)
	nop
	popq	%rbp
	ret
	.seh_endproc
	.section	.text$_ZNSt12_Vector_baseIiSaIiEE12_Vector_implD1Ev,"x"
	.linkonce discard
	.align 2
	.globl	_ZNSt12_Vector_baseIiSaIiEE12_Vector_implD1Ev
	.def	_ZNSt12_Vector_baseIiSaIiEE12_Vector_implD1Ev;	.scl	2;	.type	32;	.endef
	.seh_proc	_ZNSt12_Vector_baseIiSaIiEE12_Vector_implD1Ev
_ZNSt12_Vector_baseIiSaIiEE12_Vector_implD1Ev:
.LFB4217:
	pushq	%rbp
	.seh_pushreg	%rbp
	movq	%rsp, %rbp
	.seh_setframe	%rbp, 0
	subq	$48, %rsp
	.seh_stackalloc	48
	.seh_endprologue
	movq	%rcx, 16(%rbp)
	movq	16(%rbp), %rax
	movq	%rax, -8(%rbp)
	movq	-8(%rbp), %rax
	movq	%rax, %rcx
	call	_ZNSt15__new_allocatorIiED2Ev
	nop
	nop
	addq	$48, %rsp
	popq	%rbp
	ret
	.seh_endproc
	.section	.text$_ZNSt12_Vector_baseIiSaIiEEC2ERKS0_,"x"
	.linkonce discard
	.align 2
	.globl	_ZNSt12_Vector_baseIiSaIiEEC2ERKS0_
	.def	_ZNSt12_Vector_baseIiSaIiEEC2ERKS0_;	.scl	2;	.type	32;	.endef
	.seh_proc	_ZNSt12_Vector_baseIiSaIiEEC2ERKS0_
_ZNSt12_Vector_baseIiSaIiEEC2ERKS0_:
.LFB4218:
	pushq	%rbp
	.seh_pushreg	%rbp
	movq	%rsp, %rbp
	.seh_setframe	%rbp, 0
	subq	$32, %rsp
	.seh_stackalloc	32
	.seh_endprologue
	movq	%rcx, 16(%rbp)
	movq	%rdx, 24(%rbp)
	movq	16(%rbp), %rax
	movq	24(%rbp), %rdx
	movq	%rax, %rcx
	call	_ZNSt12_Vector_baseIiSaIiEE12_Vector_implC1ERKS0_
	nop
	addq	$32, %rsp
	popq	%rbp
	ret
	.seh_endproc
	.section	.text$_ZNSt12_Vector_baseIiSaIiEED2Ev,"x"
	.linkonce discard
	.align 2
	.globl	_ZNSt12_Vector_baseIiSaIiEED2Ev
	.def	_ZNSt12_Vector_baseIiSaIiEED2Ev;	.scl	2;	.type	32;	.endef
	.seh_proc	_ZNSt12_Vector_baseIiSaIiEED2Ev
_ZNSt12_Vector_baseIiSaIiEED2Ev:
.LFB4221:
	pushq	%rbp
	.seh_pushreg	%rbp
	movq	%rsp, %rbp
	.seh_setframe	%rbp, 0
	subq	$32, %rsp
	.seh_stackalloc	32
	.seh_endprologue
	movq	%rcx, 16(%rbp)
	movq	16(%rbp), %rax
	movq	16(%rax), %rdx
	movq	16(%rbp), %rax
	movq	(%rax), %rax
	subq	%rax, %rdx
	movq	%rdx, %rax
	sarq	$2, %rax
	movq	%rax, %rcx
	movq	16(%rbp), %rax
	movq	(%rax), %rdx
	movq	16(%rbp), %rax
	movq	%rcx, %r8
	movq	%rax, %rcx
	call	_ZNSt12_Vector_baseIiSaIiEE13_M_deallocateEPiy
	movq	16(%rbp), %rax
	movq	%rax, %rcx
	call	_ZNSt12_Vector_baseIiSaIiEE12_Vector_implD1Ev
	nop
	addq	$32, %rsp
	popq	%rbp
	ret
	.seh_handler	__gxx_personality_seh0, @unwind, @except
	.seh_handlerdata
.LLSDA4221:
	.byte	0xff
	.byte	0xff
	.byte	0x1
	.uleb128 .LLSDACSE4221-.LLSDACSB4221
.LLSDACSB4221:
.LLSDACSE4221:
	.section	.text$_ZNSt12_Vector_baseIiSaIiEED2Ev,"x"
	.linkonce discard
	.seh_endproc
	.section	.text$_ZNKSt16initializer_listIiE5beginEv,"x"
	.linkonce discard
	.align 2
	.globl	_ZNKSt16initializer_listIiE5beginEv
	.def	_ZNKSt16initializer_listIiE5beginEv;	.scl	2;	.type	32;	.endef
	.seh_proc	_ZNKSt16initializer_listIiE5beginEv
_ZNKSt16initializer_listIiE5beginEv:
.LFB4223:
	pushq	%rbp
	.seh_pushreg	%rbp
	movq	%rsp, %rbp
	.seh_setframe	%rbp, 0
	.seh_endprologue
	movq	%rcx, 16(%rbp)
	movq	16(%rbp), %rax
	movq	(%rax), %rax
	popq	%rbp
	ret
	.seh_endproc
	.section	.text$_ZNKSt16initializer_listIiE3endEv,"x"
	.linkonce discard
	.align 2
	.globl	_ZNKSt16initializer_listIiE3endEv
	.def	_ZNKSt16initializer_listIiE3endEv;	.scl	2;	.type	32;	.endef
	.seh_proc	_ZNKSt16initializer_listIiE3endEv
_ZNKSt16initializer_listIiE3endEv:
.LFB4224:
	pushq	%rbp
	.seh_pushreg	%rbp
	pushq	%rbx
	.seh_pushreg	%rbx
	subq	$40, %rsp
	.seh_stackalloc	40
	leaq	32(%rsp), %rbp
	.seh_setframe	%rbp, 32
	.seh_endprologue
	movq	%rcx, 32(%rbp)
	movq	32(%rbp), %rax
	movq	%rax, %rcx
	call	_ZNKSt16initializer_listIiE5beginEv
	movq	%rax, %rbx
	movq	32(%rbp), %rax
	movq	%rax, %rcx
	call	_ZNKSt16initializer_listIiE4sizeEv
	salq	$2, %rax
	addq	%rbx, %rax
	addq	$40, %rsp
	popq	%rbx
	popq	%rbp
	ret
	.seh_endproc
	.section	.text$_ZNKSt16initializer_listIiE4sizeEv,"x"
	.linkonce discard
	.align 2
	.globl	_ZNKSt16initializer_listIiE4sizeEv
	.def	_ZNKSt16initializer_listIiE4sizeEv;	.scl	2;	.type	32;	.endef
	.seh_proc	_ZNKSt16initializer_listIiE4sizeEv
_ZNKSt16initializer_listIiE4sizeEv:
.LFB4225:
	pushq	%rbp
	.seh_pushreg	%rbp
	movq	%rsp, %rbp
	.seh_setframe	%rbp, 0
	.seh_endprologue
	movq	%rcx, 16(%rbp)
	movq	16(%rbp), %rax
	movq	8(%rax), %rax
	popq	%rbp
	ret
	.seh_endproc
	.section	.text$_ZNSt6vectorIiSaIiEE21_M_range_initialize_nIPKiS4_EEvT_T0_y,"x"
	.linkonce discard
	.align 2
	.globl	_ZNSt6vectorIiSaIiEE21_M_range_initialize_nIPKiS4_EEvT_T0_y
	.def	_ZNSt6vectorIiSaIiEE21_M_range_initialize_nIPKiS4_EEvT_T0_y;	.scl	2;	.type	32;	.endef
	.seh_proc	_ZNSt6vectorIiSaIiEE21_M_range_initialize_nIPKiS4_EEvT_T0_y
_ZNSt6vectorIiSaIiEE21_M_range_initialize_nIPKiS4_EEvT_T0_y:
.LFB4226:
	pushq	%rbp
	.seh_pushreg	%rbp
	pushq	%rbx
	.seh_pushreg	%rbx
	subq	$56, %rsp
	.seh_stackalloc	56
	leaq	48(%rsp), %rbp
	.seh_setframe	%rbp, 48
	.seh_endprologue
	movq	%rcx, 32(%rbp)
	movq	%rdx, 40(%rbp)
	movq	%r8, 48(%rbp)
	movq	%r9, 56(%rbp)
	movq	32(%rbp), %rbx
	movq	32(%rbp), %rax
	movq	%rax, %rcx
	call	_ZNSt12_Vector_baseIiSaIiEE19_M_get_Tp_allocatorEv
	movq	%rax, %rdx
	movq	56(%rbp), %rax
	movq	%rax, %rcx
	call	_ZNSt6vectorIiSaIiEE17_S_check_init_lenEyRKS0_
	movq	%rax, %rdx
	movq	%rbx, %rcx
	call	_ZNSt12_Vector_baseIiSaIiEE11_M_allocateEy
	movq	%rax, -8(%rbp)
	movq	32(%rbp), %rax
	movq	-8(%rbp), %rdx
	movq	%rdx, 8(%rax)
	movq	32(%rbp), %rax
	movq	8(%rax), %rdx
	movq	32(%rbp), %rax
	movq	%rdx, (%rax)
	movq	56(%rbp), %rax
	leaq	0(,%rax,4), %rdx
	movq	-8(%rbp), %rax
	addq	%rax, %rdx
	movq	32(%rbp), %rax
	movq	%rdx, 16(%rax)
	movq	32(%rbp), %rax
	movq	%rax, %rcx
	call	_ZNSt12_Vector_baseIiSaIiEE19_M_get_Tp_allocatorEv
	movq	%rax, %rcx
	leaq	40(%rbp), %rax
	movq	(%rax), %rax
	movq	-8(%rbp), %r8
	movq	48(%rbp), %rdx
	movq	%rcx, %r9
	movq	%rax, %rcx
	call	_ZSt22__uninitialized_copy_aIPKiS1_PiiET1_T_T0_S3_RSaIT2_E
	movq	32(%rbp), %rdx
	movq	%rax, 8(%rdx)
	nop
	addq	$56, %rsp
	popq	%rbx
	popq	%rbp
	ret
	.seh_endproc
	.section	.text$_ZNSt12_Vector_baseIiSaIiEE19_M_get_Tp_allocatorEv,"x"
	.linkonce discard
	.align 2
	.globl	_ZNSt12_Vector_baseIiSaIiEE19_M_get_Tp_allocatorEv
	.def	_ZNSt12_Vector_baseIiSaIiEE19_M_get_Tp_allocatorEv;	.scl	2;	.type	32;	.endef
	.seh_proc	_ZNSt12_Vector_baseIiSaIiEE19_M_get_Tp_allocatorEv
_ZNSt12_Vector_baseIiSaIiEE19_M_get_Tp_allocatorEv:
.LFB4227:
	pushq	%rbp
	.seh_pushreg	%rbp
	movq	%rsp, %rbp
	.seh_setframe	%rbp, 0
	.seh_endprologue
	movq	%rcx, 16(%rbp)
	movq	16(%rbp), %rax
	popq	%rbp
	ret
	.seh_endproc
	.section	.text$_ZNKSt6vectorIiSaIiEE4sizeEv,"x"
	.linkonce discard
	.align 2
	.globl	_ZNKSt6vectorIiSaIiEE4sizeEv
	.def	_ZNKSt6vectorIiSaIiEE4sizeEv;	.scl	2;	.type	32;	.endef
	.seh_proc	_ZNKSt6vectorIiSaIiEE4sizeEv
_ZNKSt6vectorIiSaIiEE4sizeEv:
.LFB4263:
	pushq	%rbp
	.seh_pushreg	%rbp
	movq	%rsp, %rbp
	.seh_setframe	%rbp, 0
	subq	$16, %rsp
	.seh_stackalloc	16
	.seh_endprologue
	movq	%rcx, 16(%rbp)
	movq	16(%rbp), %rax
	movq	8(%rax), %rdx
	movq	16(%rbp), %rax
	movq	(%rax), %rax
	subq	%rax, %rdx
	movq	%rdx, %rax
	sarq	$2, %rax
	movq	%rax, -8(%rbp)
	cmpq	$0, -8(%rbp)
	movq	-8(%rbp), %rax
	addq	$16, %rsp
	popq	%rbp
	ret
	.seh_endproc
	.section	.text$_ZNKSt6vectorIiSaIiEE5beginEv,"x"
	.linkonce discard
	.align 2
	.globl	_ZNKSt6vectorIiSaIiEE5beginEv
	.def	_ZNKSt6vectorIiSaIiEE5beginEv;	.scl	2;	.type	32;	.endef
	.seh_proc	_ZNKSt6vectorIiSaIiEE5beginEv
_ZNKSt6vectorIiSaIiEE5beginEv:
.LFB4264:
	pushq	%rbp
	.seh_pushreg	%rbp
	movq	%rsp, %rbp
	.seh_setframe	%rbp, 0
	subq	$16, %rsp
	.seh_stackalloc	16
	.seh_endprologue
	movq	%rcx, 16(%rbp)
	movq	16(%rbp), %rax
	movq	%rax, -8(%rbp)
	movq	-8(%rbp), %rax
	movq	(%rax), %rax
	movq	%rax, -16(%rbp)
	nop
	movq	-16(%rbp), %rax
	addq	$16, %rsp
	popq	%rbp
	ret
	.seh_endproc
	.section	.text$_ZNKSt6vectorIiSaIiEE3endEv,"x"
	.linkonce discard
	.align 2
	.globl	_ZNKSt6vectorIiSaIiEE3endEv
	.def	_ZNKSt6vectorIiSaIiEE3endEv;	.scl	2;	.type	32;	.endef
	.seh_proc	_ZNKSt6vectorIiSaIiEE3endEv
_ZNKSt6vectorIiSaIiEE3endEv:
.LFB4265:
	pushq	%rbp
	.seh_pushreg	%rbp
	movq	%rsp, %rbp
	.seh_setframe	%rbp, 0
	subq	$16, %rsp
	.seh_stackalloc	16
	.seh_endprologue
	movq	%rcx, 16(%rbp)
	movq	16(%rbp), %rax
	addq	$8, %rax
	movq	%rax, -8(%rbp)
	movq	-8(%rbp), %rax
	movq	(%rax), %rax
	movq	%rax, -16(%rbp)
	nop
	movq	-16(%rbp), %rax
	addq	$16, %rsp
	popq	%rbp
	ret
	.seh_endproc
	.section	.text$_ZSt5equalIN9__gnu_cxx17__normal_iteratorIPKiSt6vectorIiSaIiEEEES7_EbT_S8_T0_,"x"
	.linkonce discard
	.globl	_ZSt5equalIN9__gnu_cxx17__normal_iteratorIPKiSt6vectorIiSaIiEEEES7_EbT_S8_T0_
	.def	_ZSt5equalIN9__gnu_cxx17__normal_iteratorIPKiSt6vectorIiSaIiEEEES7_EbT_S8_T0_;	.scl	2;	.type	32;	.endef
	.seh_proc	_ZSt5equalIN9__gnu_cxx17__normal_iteratorIPKiSt6vectorIiSaIiEEEES7_EbT_S8_T0_
_ZSt5equalIN9__gnu_cxx17__normal_iteratorIPKiSt6vectorIiSaIiEEEES7_EbT_S8_T0_:
.LFB4266:
	pushq	%rbp
	.seh_pushreg	%rbp
	movq	%rsp, %rbp
	.seh_setframe	%rbp, 0
	subq	$80, %rsp
	.seh_stackalloc	80
	.seh_endprologue
	movq	%rcx, 16(%rbp)
	movq	%rdx, 24(%rbp)
	movq	%r8, 32(%rbp)
	movq	16(%rbp), %rax
	movq	%rax, -8(%rbp)
	movq	24(%rbp), %rax
	movq	%rax, -16(%rbp)
	movq	32(%rbp), %rax
	movq	%rax, -24(%rbp)
	movq	-24(%rbp), %rax
	movq	%rax, -32(%rbp)
	leaq	-32(%rbp), %rax
	movq	(%rax), %rcx
	movq	-16(%rbp), %rax
	movq	%rax, -40(%rbp)
	leaq	-40(%rbp), %rax
	movq	(%rax), %rdx
	movq	-8(%rbp), %rax
	movq	%rax, -48(%rbp)
	leaq	-48(%rbp), %rax
	movq	(%rax), %rax
	movq	%rcx, %r8
	movq	%rax, %rcx
	call	_ZSt12__equal_aux1IPKiS1_EbT_S2_T0_
	nop
	addq	$80, %rsp
	popq	%rbp
	ret
	.seh_endproc
	.section	.text$_ZNSt19__ptr_traits_ptr_toIPccLb0EE10pointer_toERc,"x"
	.linkonce discard
	.globl	_ZNSt19__ptr_traits_ptr_toIPccLb0EE10pointer_toERc
	.def	_ZNSt19__ptr_traits_ptr_toIPccLb0EE10pointer_toERc;	.scl	2;	.type	32;	.endef
	.seh_proc	_ZNSt19__ptr_traits_ptr_toIPccLb0EE10pointer_toERc
_ZNSt19__ptr_traits_ptr_toIPccLb0EE10pointer_toERc:
.LFB4267:
	pushq	%rbp
	.seh_pushreg	%rbp
	movq	%rsp, %rbp
	.seh_setframe	%rbp, 0
	subq	$16, %rsp
	.seh_stackalloc	16
	.seh_endprologue
	movq	%rcx, 16(%rbp)
	movq	16(%rbp), %rax
	movq	%rax, -8(%rbp)
	movq	-8(%rbp), %rax
	movq	%rax, -16(%rbp)
	movq	-16(%rbp), %rax
	nop
	addq	$16, %rsp
	popq	%rbp
	ret
	.seh_endproc
	.section	.text$_ZNSt7__cxx1112basic_stringIcSt11char_traitsIcESaIcEE10_M_destroyEy,"x"
	.linkonce discard
	.align 2
	.globl	_ZNSt7__cxx1112basic_stringIcSt11char_traitsIcESaIcEE10_M_destroyEy
	.def	_ZNSt7__cxx1112basic_stringIcSt11char_traitsIcESaIcEE10_M_destroyEy;	.scl	2;	.type	32;	.endef
	.seh_proc	_ZNSt7__cxx1112basic_stringIcSt11char_traitsIcESaIcEE10_M_destroyEy
_ZNSt7__cxx1112basic_stringIcSt11char_traitsIcESaIcEE10_M_destroyEy:
.LFB4271:
	pushq	%rbp
	.seh_pushreg	%rbp
	pushq	%rsi
	.seh_pushreg	%rsi
	pushq	%rbx
	.seh_pushreg	%rbx
	subq	$64, %rsp
	.seh_stackalloc	64
	leaq	64(%rsp), %rbp
	.seh_setframe	%rbp, 64
	.seh_endprologue
	movq	%rcx, 32(%rbp)
	movq	%rdx, 40(%rbp)
	movq	40(%rbp), %rax
	leaq	1(%rax), %rsi
	movq	32(%rbp), %rax
	movq	%rax, %rcx
	call	_ZNKSt7__cxx1112basic_stringIcSt11char_traitsIcESaIcEE7_M_dataEv
	movq	%rax, %rbx
	movq	32(%rbp), %rax
	movq	%rax, %rcx
	call	_ZNSt7__cxx1112basic_stringIcSt11char_traitsIcESaIcEE16_M_get_allocatorEv
	movq	%rax, -8(%rbp)
	movq	%rbx, -16(%rbp)
	movq	%rsi, -24(%rbp)
	movq	-24(%rbp), %rcx
	movq	-16(%rbp), %rdx
	movq	-8(%rbp), %rax
	movq	%rcx, %r8
	movq	%rax, %rcx
	call	_ZNSt15__new_allocatorIcE10deallocateEPcy
	nop
	nop
	addq	$64, %rsp
	popq	%rbx
	popq	%rsi
	popq	%rbp
	ret
	.seh_endproc
	.section .rdata,"dr"
.LC3:
	.ascii "basic_string::_M_create\0"
	.section	.text$_ZNSt7__cxx1112basic_stringIcSt11char_traitsIcESaIcEE9_M_createERyy,"x"
	.linkonce discard
	.align 2
	.globl	_ZNSt7__cxx1112basic_stringIcSt11char_traitsIcESaIcEE9_M_createERyy
	.def	_ZNSt7__cxx1112basic_stringIcSt11char_traitsIcESaIcEE9_M_createERyy;	.scl	2;	.type	32;	.endef
	.seh_proc	_ZNSt7__cxx1112basic_stringIcSt11char_traitsIcESaIcEE9_M_createERyy
_ZNSt7__cxx1112basic_stringIcSt11char_traitsIcESaIcEE9_M_createERyy:
.LFB4273:
	pushq	%rbp
	.seh_pushreg	%rbp
	pushq	%rbx
	.seh_pushreg	%rbx
	subq	$40, %rsp
	.seh_stackalloc	40
	leaq	32(%rsp), %rbp
	.seh_setframe	%rbp, 32
	.seh_endprologue
	movq	%rcx, 32(%rbp)
	movq	%rdx, 40(%rbp)
	movq	%r8, 48(%rbp)
	movq	40(%rbp), %rax
	movq	(%rax), %rbx
	movq	32(%rbp), %rax
	movq	%rax, %rcx
	call	_ZNKSt7__cxx1112basic_stringIcSt11char_traitsIcESaIcEE8max_sizeEv
	cmpq	%rbx, %rax
	setb	%al
	testb	%al, %al
	je	.L114
	leaq	.LC3(%rip), %rax
	movq	%rax, %rcx
	call	_ZSt20__throw_length_errorPKc
.L114:
	movq	40(%rbp), %rax
	movq	(%rax), %rax
	cmpq	%rax, 48(%rbp)
	jnb	.L115
	movq	40(%rbp), %rax
	movq	(%rax), %rdx
	movq	48(%rbp), %rax
	addq	%rax, %rax
	cmpq	%rax, %rdx
	jnb	.L115
	movq	48(%rbp), %rax
	leaq	(%rax,%rax), %rdx
	movq	40(%rbp), %rax
	movq	%rdx, (%rax)
	movq	40(%rbp), %rax
	movq	(%rax), %rbx
	movq	32(%rbp), %rax
	movq	%rax, %rcx
	call	_ZNKSt7__cxx1112basic_stringIcSt11char_traitsIcESaIcEE8max_sizeEv
	cmpq	%rbx, %rax
	setb	%al
	testb	%al, %al
	je	.L115
	movq	32(%rbp), %rax
	movq	%rax, %rcx
	call	_ZNKSt7__cxx1112basic_stringIcSt11char_traitsIcESaIcEE8max_sizeEv
	movq	40(%rbp), %rdx
	movq	%rax, (%rdx)
.L115:
	movq	40(%rbp), %rax
	movq	(%rax), %rax
	leaq	1(%rax), %rbx
	movq	32(%rbp), %rax
	movq	%rax, %rcx
	call	_ZNSt7__cxx1112basic_stringIcSt11char_traitsIcESaIcEE16_M_get_allocatorEv
	movq	%rbx, %rdx
	movq	%rax, %rcx
	call	_ZNSt7__cxx1112basic_stringIcSt11char_traitsIcESaIcEE11_S_allocateERS3_y
	addq	$40, %rsp
	popq	%rbx
	popq	%rbp
	ret
	.seh_endproc
	.section	.text$_ZNSt7__cxx1112basic_stringIcSt11char_traitsIcESaIcEE7_S_copyEPcPKcy,"x"
	.linkonce discard
	.globl	_ZNSt7__cxx1112basic_stringIcSt11char_traitsIcESaIcEE7_S_copyEPcPKcy
	.def	_ZNSt7__cxx1112basic_stringIcSt11char_traitsIcESaIcEE7_S_copyEPcPKcy;	.scl	2;	.type	32;	.endef
	.seh_proc	_ZNSt7__cxx1112basic_stringIcSt11char_traitsIcESaIcEE7_S_copyEPcPKcy
_ZNSt7__cxx1112basic_stringIcSt11char_traitsIcESaIcEE7_S_copyEPcPKcy:
.LFB4274:
	pushq	%rbp
	.seh_pushreg	%rbp
	movq	%rsp, %rbp
	.seh_setframe	%rbp, 0
	subq	$32, %rsp
	.seh_stackalloc	32
	.seh_endprologue
	movq	%rcx, 16(%rbp)
	movq	%rdx, 24(%rbp)
	movq	%r8, 32(%rbp)
	cmpq	$1, 32(%rbp)
	jne	.L118
	movq	24(%rbp), %rdx
	movq	16(%rbp), %rax
	movq	%rax, %rcx
	call	_ZNSt11char_traitsIcE6assignERcRKc
	jmp	.L120
.L118:
	movq	32(%rbp), %rcx
	movq	24(%rbp), %rdx
	movq	16(%rbp), %rax
	movq	%rcx, %r8
	movq	%rax, %rcx
	call	_ZNSt11char_traitsIcE4copyEPcPKcy
.L120:
	nop
	addq	$32, %rsp
	popq	%rbp
	ret
	.seh_endproc
	.section	.text$_ZNKSt7__cxx1112basic_stringIcSt11char_traitsIcESaIcEE13_M_local_dataEv,"x"
	.linkonce discard
	.align 2
	.globl	_ZNKSt7__cxx1112basic_stringIcSt11char_traitsIcESaIcEE13_M_local_dataEv
	.def	_ZNKSt7__cxx1112basic_stringIcSt11char_traitsIcESaIcEE13_M_local_dataEv;	.scl	2;	.type	32;	.endef
	.seh_proc	_ZNKSt7__cxx1112basic_stringIcSt11char_traitsIcESaIcEE13_M_local_dataEv
_ZNKSt7__cxx1112basic_stringIcSt11char_traitsIcESaIcEE13_M_local_dataEv:
.LFB4275:
	pushq	%rbp
	.seh_pushreg	%rbp
	movq	%rsp, %rbp
	.seh_setframe	%rbp, 0
	subq	$32, %rsp
	.seh_stackalloc	32
	.seh_endprologue
	movq	%rcx, 16(%rbp)
	movq	16(%rbp), %rax
	addq	$16, %rax
	movq	%rax, %rcx
	call	_ZNSt19__ptr_traits_ptr_toIPKcS0_Lb0EE10pointer_toERS0_
	addq	$32, %rsp
	popq	%rbp
	ret
	.seh_endproc
	.section	.text$_ZSt3minIyERKT_S2_S2_,"x"
	.linkonce discard
	.globl	_ZSt3minIyERKT_S2_S2_
	.def	_ZSt3minIyERKT_S2_S2_;	.scl	2;	.type	32;	.endef
	.seh_proc	_ZSt3minIyERKT_S2_S2_
_ZSt3minIyERKT_S2_S2_:
.LFB4298:
	pushq	%rbp
	.seh_pushreg	%rbp
	movq	%rsp, %rbp
	.seh_setframe	%rbp, 0
	.seh_endprologue
	movq	%rcx, 16(%rbp)
	movq	%rdx, 24(%rbp)
	movq	24(%rbp), %rax
	movq	(%rax), %rdx
	movq	16(%rbp), %rax
	movq	(%rax), %rax
	cmpq	%rax, %rdx
	jnb	.L124
	movq	24(%rbp), %rax
	jmp	.L125
.L124:
	movq	16(%rbp), %rax
.L125:
	popq	%rbp
	ret
	.seh_endproc
	.section	.text$_ZNKSt7__cxx1112basic_stringIcSt11char_traitsIcESaIcEE8max_sizeEv,"x"
	.linkonce discard
	.align 2
	.globl	_ZNKSt7__cxx1112basic_stringIcSt11char_traitsIcESaIcEE8max_sizeEv
	.def	_ZNKSt7__cxx1112basic_stringIcSt11char_traitsIcESaIcEE8max_sizeEv;	.scl	2;	.type	32;	.endef
	.seh_proc	_ZNKSt7__cxx1112basic_stringIcSt11char_traitsIcESaIcEE8max_sizeEv
_ZNKSt7__cxx1112basic_stringIcSt11char_traitsIcESaIcEE8max_sizeEv:
.LFB4297:
	pushq	%rbp
	.seh_pushreg	%rbp
	movq	%rsp, %rbp
	.seh_setframe	%rbp, 0
	subq	$80, %rsp
	.seh_stackalloc	80
	.seh_endprologue
	movq	%rcx, 16(%rbp)
	movabsq	$9223372036854775807, %rax
	movq	%rax, -32(%rbp)
	movq	16(%rbp), %rax
	movq	%rax, %rcx
	call	_ZNKSt7__cxx1112basic_stringIcSt11char_traitsIcESaIcEE16_M_get_allocatorEv
	movq	%rax, -8(%rbp)
	movq	-8(%rbp), %rax
	movq	%rax, -16(%rbp)
	movq	-16(%rbp), %rax
	movq	%rax, -24(%rbp)
	movabsq	$9223372036854775807, %rax
	nop
	nop
	movq	%rax, -40(%rbp)
	leaq	-40(%rbp), %rdx
	leaq	-32(%rbp), %rax
	movq	%rax, %rcx
	call	_ZSt3minIyERKT_S2_S2_
	movq	(%rax), %rax
	subq	$1, %rax
	addq	$80, %rsp
	popq	%rbp
	ret
	.seh_endproc
	.section	.text$_ZNSt7__cxx1112basic_stringIcSt11char_traitsIcESaIcEE13_S_copy_charsIPKcEEvPcT_S9_,"x"
	.linkonce discard
	.globl	_ZNSt7__cxx1112basic_stringIcSt11char_traitsIcESaIcEE13_S_copy_charsIPKcEEvPcT_S9_
	.def	_ZNSt7__cxx1112basic_stringIcSt11char_traitsIcESaIcEE13_S_copy_charsIPKcEEvPcT_S9_;	.scl	2;	.type	32;	.endef
	.seh_proc	_ZNSt7__cxx1112basic_stringIcSt11char_traitsIcESaIcEE13_S_copy_charsIPKcEEvPcT_S9_
_ZNSt7__cxx1112basic_stringIcSt11char_traitsIcESaIcEE13_S_copy_charsIPKcEEvPcT_S9_:
.LFB4299:
	pushq	%rbp
	.seh_pushreg	%rbp
	movq	%rsp, %rbp
	.seh_setframe	%rbp, 0
	subq	$48, %rsp
	.seh_stackalloc	48
	.seh_endprologue
	movq	%rcx, 16(%rbp)
	movq	%rdx, 24(%rbp)
	movq	%r8, 32(%rbp)
	movq	32(%rbp), %rax
	subq	24(%rbp), %rax
	movq	%rax, %rcx
	movq	24(%rbp), %rax
	movq	%rax, -8(%rbp)
	movq	-8(%rbp), %rdx
	movq	16(%rbp), %rax
	movq	%rcx, %r8
	movq	%rax, %rcx
	call	_ZNSt7__cxx1112basic_stringIcSt11char_traitsIcESaIcEE7_S_copyEPcPKcy
	nop
	addq	$48, %rsp
	popq	%rbp
	ret
	.seh_endproc
	.section	.text$_ZNSt12_Vector_baseIiSaIiEE12_Vector_implC1ERKS0_,"x"
	.linkonce discard
	.align 2
	.globl	_ZNSt12_Vector_baseIiSaIiEE12_Vector_implC1ERKS0_
	.def	_ZNSt12_Vector_baseIiSaIiEE12_Vector_implC1ERKS0_;	.scl	2;	.type	32;	.endef
	.seh_proc	_ZNSt12_Vector_baseIiSaIiEE12_Vector_implC1ERKS0_
_ZNSt12_Vector_baseIiSaIiEE12_Vector_implC1ERKS0_:
.LFB4365:
	pushq	%rbp
	.seh_pushreg	%rbp
	movq	%rsp, %rbp
	.seh_setframe	%rbp, 0
	subq	$64, %rsp
	.seh_stackalloc	64
	.seh_endprologue
	movq	%rcx, 16(%rbp)
	movq	%rdx, 24(%rbp)
	movq	16(%rbp), %rax
	movq	%rax, -8(%rbp)
	movq	24(%rbp), %rax
	movq	%rax, -16(%rbp)
	movq	-8(%rbp), %rax
	movq	%rax, -24(%rbp)
	movq	-16(%rbp), %rax
	movq	%rax, -32(%rbp)
	nop
	nop
	movq	16(%rbp), %rax
	movq	%rax, %rcx
	call	_ZNSt12_Vector_baseIiSaIiEE17_Vector_impl_dataC2Ev
	nop
	addq	$64, %rsp
	popq	%rbp
	ret
	.seh_endproc
	.section	.text$_ZNSt12_Vector_baseIiSaIiEE13_M_deallocateEPiy,"x"
	.linkonce discard
	.align 2
	.globl	_ZNSt12_Vector_baseIiSaIiEE13_M_deallocateEPiy
	.def	_ZNSt12_Vector_baseIiSaIiEE13_M_deallocateEPiy;	.scl	2;	.type	32;	.endef
	.seh_proc	_ZNSt12_Vector_baseIiSaIiEE13_M_deallocateEPiy
_ZNSt12_Vector_baseIiSaIiEE13_M_deallocateEPiy:
.LFB4366:
	pushq	%rbp
	.seh_pushreg	%rbp
	movq	%rsp, %rbp
	.seh_setframe	%rbp, 0
	subq	$64, %rsp
	.seh_stackalloc	64
	.seh_endprologue
	movq	%rcx, 16(%rbp)
	movq	%rdx, 24(%rbp)
	movq	%r8, 32(%rbp)
	cmpq	$0, 24(%rbp)
	je	.L136
	movq	16(%rbp), %rax
	movq	%rax, -8(%rbp)
	movq	24(%rbp), %rax
	movq	%rax, -16(%rbp)
	movq	32(%rbp), %rax
	movq	%rax, -24(%rbp)
	movq	-24(%rbp), %rcx
	movq	-16(%rbp), %rdx
	movq	-8(%rbp), %rax
	movq	%rcx, %r8
	movq	%rax, %rcx
	call	_ZNSt15__new_allocatorIiE10deallocateEPiy
	nop
.L136:
	nop
	addq	$64, %rsp
	popq	%rbp
	ret
	.seh_endproc
	.section .rdata,"dr"
	.align 8
.LC4:
	.ascii "cannot create std::vector larger than max_size()\0"
	.section	.text$_ZNSt6vectorIiSaIiEE17_S_check_init_lenEyRKS0_,"x"
	.linkonce discard
	.globl	_ZNSt6vectorIiSaIiEE17_S_check_init_lenEyRKS0_
	.def	_ZNSt6vectorIiSaIiEE17_S_check_init_lenEyRKS0_;	.scl	2;	.type	32;	.endef
	.seh_proc	_ZNSt6vectorIiSaIiEE17_S_check_init_lenEyRKS0_
_ZNSt6vectorIiSaIiEE17_S_check_init_lenEyRKS0_:
.LFB4367:
	pushq	%rbp
	.seh_pushreg	%rbp
	pushq	%rbx
	.seh_pushreg	%rbx
	subq	$72, %rsp
	.seh_stackalloc	72
	leaq	64(%rsp), %rbp
	.seh_setframe	%rbp, 64
	.seh_endprologue
	movq	%rcx, 32(%rbp)
	movq	%rdx, 40(%rbp)
	movq	40(%rbp), %rax
	movq	%rax, -8(%rbp)
	leaq	-25(%rbp), %rax
	movq	%rax, -16(%rbp)
	movq	-8(%rbp), %rax
	movq	%rax, -24(%rbp)
	nop
	nop
	leaq	-25(%rbp), %rax
	movq	%rax, %rcx
	call	_ZNSt6vectorIiSaIiEE11_S_max_sizeERKS0_
	cmpq	32(%rbp), %rax
	setb	%bl
	leaq	-25(%rbp), %rax
	movq	%rax, %rcx
	call	_ZNSt15__new_allocatorIiED2Ev
	nop
	testb	%bl, %bl
	je	.L138
	leaq	.LC4(%rip), %rax
	movq	%rax, %rcx
	call	_ZSt20__throw_length_errorPKc
.L138:
	movq	32(%rbp), %rax
	addq	$72, %rsp
	popq	%rbx
	popq	%rbp
	ret
	.seh_endproc
	.section	.text$_ZNSt12_Vector_baseIiSaIiEE11_M_allocateEy,"x"
	.linkonce discard
	.align 2
	.globl	_ZNSt12_Vector_baseIiSaIiEE11_M_allocateEy
	.def	_ZNSt12_Vector_baseIiSaIiEE11_M_allocateEy;	.scl	2;	.type	32;	.endef
	.seh_proc	_ZNSt12_Vector_baseIiSaIiEE11_M_allocateEy
_ZNSt12_Vector_baseIiSaIiEE11_M_allocateEy:
.LFB4368:
	pushq	%rbp
	.seh_pushreg	%rbp
	movq	%rsp, %rbp
	.seh_setframe	%rbp, 0
	subq	$48, %rsp
	.seh_stackalloc	48
	.seh_endprologue
	movq	%rcx, 16(%rbp)
	movq	%rdx, 24(%rbp)
	cmpq	$0, 24(%rbp)
	je	.L141
	movq	16(%rbp), %rax
	movq	%rax, -8(%rbp)
	movq	24(%rbp), %rax
	movq	%rax, -16(%rbp)
	movq	-16(%rbp), %rdx
	movq	-8(%rbp), %rax
	movl	$0, %r8d
	movq	%rax, %rcx
	call	_ZNSt15__new_allocatorIiE8allocateEyPKv
	nop
	jmp	.L143
.L141:
	movl	$0, %eax
.L143:
	addq	$48, %rsp
	popq	%rbp
	ret
	.seh_endproc
	.section	.text$_ZSt22__uninitialized_copy_aIPKiS1_PiiET1_T_T0_S3_RSaIT2_E,"x"
	.linkonce discard
	.globl	_ZSt22__uninitialized_copy_aIPKiS1_PiiET1_T_T0_S3_RSaIT2_E
	.def	_ZSt22__uninitialized_copy_aIPKiS1_PiiET1_T_T0_S3_RSaIT2_E;	.scl	2;	.type	32;	.endef
	.seh_proc	_ZSt22__uninitialized_copy_aIPKiS1_PiiET1_T_T0_S3_RSaIT2_E
_ZSt22__uninitialized_copy_aIPKiS1_PiiET1_T_T0_S3_RSaIT2_E:
.LFB4370:
	pushq	%rbp
	.seh_pushreg	%rbp
	movq	%rsp, %rbp
	.seh_setframe	%rbp, 0
	subq	$32, %rsp
	.seh_stackalloc	32
	.seh_endprologue
	movq	%rcx, 16(%rbp)
	movq	%rdx, 24(%rbp)
	movq	%r8, 32(%rbp)
	movq	%r9, 40(%rbp)
	movq	32(%rbp), %rcx
	movq	24(%rbp), %rdx
	movq	16(%rbp), %rax
	movq	%rcx, %r8
	movq	%rax, %rcx
	call	_ZSt18uninitialized_copyIPKiPiET0_T_S4_S3_
	addq	$32, %rsp
	popq	%rbp
	ret
	.seh_endproc
	.section	.text$_ZSt8_DestroyIPiEvT_S1_,"x"
	.linkonce discard
	.globl	_ZSt8_DestroyIPiEvT_S1_
	.def	_ZSt8_DestroyIPiEvT_S1_;	.scl	2;	.type	32;	.endef
	.seh_proc	_ZSt8_DestroyIPiEvT_S1_
_ZSt8_DestroyIPiEvT_S1_:
.LFB4371:
	pushq	%rbp
	.seh_pushreg	%rbp
	movq	%rsp, %rbp
	.seh_setframe	%rbp, 0
	.seh_endprologue
	movq	%rcx, 16(%rbp)
	movq	%rdx, 24(%rbp)
	nop
	popq	%rbp
	ret
	.seh_endproc
	.section	.text$_ZNSt7__cxx1112basic_stringIcSt11char_traitsIcESaIcEE11_S_allocateERS3_y,"x"
	.linkonce discard
	.globl	_ZNSt7__cxx1112basic_stringIcSt11char_traitsIcESaIcEE11_S_allocateERS3_y
	.def	_ZNSt7__cxx1112basic_stringIcSt11char_traitsIcESaIcEE11_S_allocateERS3_y;	.scl	2;	.type	32;	.endef
	.seh_proc	_ZNSt7__cxx1112basic_stringIcSt11char_traitsIcESaIcEE11_S_allocateERS3_y
_ZNSt7__cxx1112basic_stringIcSt11char_traitsIcESaIcEE11_S_allocateERS3_y:
.LFB4396:
	pushq	%rbp
	.seh_pushreg	%rbp
	movq	%rsp, %rbp
	.seh_setframe	%rbp, 0
	subq	$64, %rsp
	.seh_stackalloc	64
	.seh_endprologue
	movq	%rcx, 16(%rbp)
	movq	%rdx, 24(%rbp)
	movq	16(%rbp), %rax
	movq	%rax, -16(%rbp)
	movq	24(%rbp), %rax
	movq	%rax, -24(%rbp)
	movq	-24(%rbp), %rdx
	movq	-16(%rbp), %rax
	movl	$0, %r8d
	movq	%rax, %rcx
	call	_ZNSt15__new_allocatorIcE8allocateEyPKv
	nop
	movq	%rax, -8(%rbp)
	movq	-8(%rbp), %rax
	addq	$64, %rsp
	popq	%rbp
	ret
	.seh_endproc
	.section	.text$_ZNSt19__ptr_traits_ptr_toIPKcS0_Lb0EE10pointer_toERS0_,"x"
	.linkonce discard
	.globl	_ZNSt19__ptr_traits_ptr_toIPKcS0_Lb0EE10pointer_toERS0_
	.def	_ZNSt19__ptr_traits_ptr_toIPKcS0_Lb0EE10pointer_toERS0_;	.scl	2;	.type	32;	.endef
	.seh_proc	_ZNSt19__ptr_traits_ptr_toIPKcS0_Lb0EE10pointer_toERS0_
_ZNSt19__ptr_traits_ptr_toIPKcS0_Lb0EE10pointer_toERS0_:
.LFB4397:
	pushq	%rbp
	.seh_pushreg	%rbp
	movq	%rsp, %rbp
	.seh_setframe	%rbp, 0
	subq	$16, %rsp
	.seh_stackalloc	16
	.seh_endprologue
	movq	%rcx, 16(%rbp)
	movq	16(%rbp), %rax
	movq	%rax, -8(%rbp)
	movq	-8(%rbp), %rax
	movq	%rax, -16(%rbp)
	movq	-16(%rbp), %rax
	nop
	addq	$16, %rsp
	popq	%rbp
	ret
	.seh_endproc
	.section	.text$_ZNKSt7__cxx1112basic_stringIcSt11char_traitsIcESaIcEE16_M_get_allocatorEv,"x"
	.linkonce discard
	.align 2
	.globl	_ZNKSt7__cxx1112basic_stringIcSt11char_traitsIcESaIcEE16_M_get_allocatorEv
	.def	_ZNKSt7__cxx1112basic_stringIcSt11char_traitsIcESaIcEE16_M_get_allocatorEv;	.scl	2;	.type	32;	.endef
	.seh_proc	_ZNKSt7__cxx1112basic_stringIcSt11char_traitsIcESaIcEE16_M_get_allocatorEv
_ZNKSt7__cxx1112basic_stringIcSt11char_traitsIcESaIcEE16_M_get_allocatorEv:
.LFB4411:
	pushq	%rbp
	.seh_pushreg	%rbp
	movq	%rsp, %rbp
	.seh_setframe	%rbp, 0
	.seh_endprologue
	movq	%rcx, 16(%rbp)
	movq	16(%rbp), %rax
	popq	%rbp
	ret
	.seh_endproc
	.section	.text$_ZNSt12_Vector_baseIiSaIiEE17_Vector_impl_dataC2Ev,"x"
	.linkonce discard
	.align 2
	.globl	_ZNSt12_Vector_baseIiSaIiEE17_Vector_impl_dataC2Ev
	.def	_ZNSt12_Vector_baseIiSaIiEE17_Vector_impl_dataC2Ev;	.scl	2;	.type	32;	.endef
	.seh_proc	_ZNSt12_Vector_baseIiSaIiEE17_Vector_impl_dataC2Ev
_ZNSt12_Vector_baseIiSaIiEE17_Vector_impl_dataC2Ev:
.LFB4467:
	pushq	%rbp
	.seh_pushreg	%rbp
	movq	%rsp, %rbp
	.seh_setframe	%rbp, 0
	.seh_endprologue
	movq	%rcx, 16(%rbp)
	movq	16(%rbp), %rax
	movq	$0, (%rax)
	movq	16(%rbp), %rax
	movq	$0, 8(%rax)
	movq	16(%rbp), %rax
	movq	$0, 16(%rax)
	nop
	popq	%rbp
	ret
	.seh_endproc
	.section	.text$_ZNSt6vectorIiSaIiEE11_S_max_sizeERKS0_,"x"
	.linkonce discard
	.globl	_ZNSt6vectorIiSaIiEE11_S_max_sizeERKS0_
	.def	_ZNSt6vectorIiSaIiEE11_S_max_sizeERKS0_;	.scl	2;	.type	32;	.endef
	.seh_proc	_ZNSt6vectorIiSaIiEE11_S_max_sizeERKS0_
_ZNSt6vectorIiSaIiEE11_S_max_sizeERKS0_:
.LFB4470:
	pushq	%rbp
	.seh_pushreg	%rbp
	movq	%rsp, %rbp
	.seh_setframe	%rbp, 0
	subq	$80, %rsp
	.seh_stackalloc	80
	.seh_endprologue
	movq	%rcx, 16(%rbp)
	movabsq	$2305843009213693951, %rax
	movq	%rax, -32(%rbp)
	movq	16(%rbp), %rax
	movq	%rax, -8(%rbp)
	movq	-8(%rbp), %rax
	movq	%rax, -16(%rbp)
	movq	-16(%rbp), %rax
	movq	%rax, -24(%rbp)
	movabsq	$2305843009213693951, %rax
	nop
	nop
	movq	%rax, -40(%rbp)
	leaq	-40(%rbp), %rdx
	leaq	-32(%rbp), %rax
	movq	%rax, %rcx
	call	_ZSt3minIyERKT_S2_S2_
	movq	(%rax), %rax
	addq	$80, %rsp
	popq	%rbp
	ret
	.seh_endproc
	.section	.text$_ZSt18uninitialized_copyIPKiPiET0_T_S4_S3_,"x"
	.linkonce discard
	.globl	_ZSt18uninitialized_copyIPKiPiET0_T_S4_S3_
	.def	_ZSt18uninitialized_copyIPKiPiET0_T_S4_S3_;	.scl	2;	.type	32;	.endef
	.seh_proc	_ZSt18uninitialized_copyIPKiPiET0_T_S4_S3_
_ZSt18uninitialized_copyIPKiPiET0_T_S4_S3_:
.LFB4472:
	pushq	%rbp
	.seh_pushreg	%rbp
	movq	%rsp, %rbp
	.seh_setframe	%rbp, 0
	subq	$64, %rsp
	.seh_stackalloc	64
	.seh_endprologue
	movq	%rcx, 16(%rbp)
	movq	%rdx, 24(%rbp)
	movq	%r8, 32(%rbp)
	movq	24(%rbp), %rax
	subq	16(%rbp), %rax
	sarq	$2, %rax
	movq	%rax, -8(%rbp)
	cmpq	$0, -8(%rbp)
	jle	.L164
	movq	-8(%rbp), %rax
	leaq	0(,%rax,4), %rcx
	movq	16(%rbp), %rax
	movq	%rax, -24(%rbp)
	movq	-24(%rbp), %rdx
	movq	32(%rbp), %rax
	movq	%rax, -16(%rbp)
	movq	-16(%rbp), %rax
	movq	%rcx, %r8
	movq	%rax, %rcx
	call	memcpy
	movq	-8(%rbp), %rax
	salq	$2, %rax
	addq	%rax, 32(%rbp)
.L164:
	movq	32(%rbp), %rax
	addq	$64, %rsp
	popq	%rbp
	ret
	.seh_endproc
	.section	.text$_ZSt12__equal_aux1IPKiS1_EbT_S2_T0_,"x"
	.linkonce discard
	.globl	_ZSt12__equal_aux1IPKiS1_EbT_S2_T0_
	.def	_ZSt12__equal_aux1IPKiS1_EbT_S2_T0_;	.scl	2;	.type	32;	.endef
	.seh_proc	_ZSt12__equal_aux1IPKiS1_EbT_S2_T0_
_ZSt12__equal_aux1IPKiS1_EbT_S2_T0_:
.LFB4476:
	pushq	%rbp
	.seh_pushreg	%rbp
	movq	%rsp, %rbp
	.seh_setframe	%rbp, 0
	subq	$48, %rsp
	.seh_stackalloc	48
	.seh_endprologue
	movq	%rcx, 16(%rbp)
	movq	%rdx, 24(%rbp)
	movq	%r8, 32(%rbp)
	movb	$1, -1(%rbp)
	movq	32(%rbp), %rcx
	movq	24(%rbp), %rdx
	movq	16(%rbp), %rax
	movq	%rcx, %r8
	movq	%rax, %rcx
	call	_ZNSt7__equalILb1EE5equalIiEEbPKT_S4_S4_
	addq	$48, %rsp
	popq	%rbp
	ret
	.seh_endproc
	.section	.text$_ZNSt15__new_allocatorIcE10deallocateEPcy,"x"
	.linkonce discard
	.align 2
	.globl	_ZNSt15__new_allocatorIcE10deallocateEPcy
	.def	_ZNSt15__new_allocatorIcE10deallocateEPcy;	.scl	2;	.type	32;	.endef
	.seh_proc	_ZNSt15__new_allocatorIcE10deallocateEPcy
_ZNSt15__new_allocatorIcE10deallocateEPcy:
.LFB4478:
	pushq	%rbp
	.seh_pushreg	%rbp
	movq	%rsp, %rbp
	.seh_setframe	%rbp, 0
	subq	$32, %rsp
	.seh_stackalloc	32
	.seh_endprologue
	movq	%rcx, 16(%rbp)
	movq	%rdx, 24(%rbp)
	movq	%r8, 32(%rbp)
	movq	32(%rbp), %rdx
	movq	24(%rbp), %rax
	movq	%rax, %rcx
	call	_ZdlPvy
	nop
	addq	$32, %rsp
	popq	%rbp
	ret
	.seh_endproc
	.section	.text$_ZNSt15__new_allocatorIiE10deallocateEPiy,"x"
	.linkonce discard
	.align 2
	.globl	_ZNSt15__new_allocatorIiE10deallocateEPiy
	.def	_ZNSt15__new_allocatorIiE10deallocateEPiy;	.scl	2;	.type	32;	.endef
	.seh_proc	_ZNSt15__new_allocatorIiE10deallocateEPiy
_ZNSt15__new_allocatorIiE10deallocateEPiy:
.LFB4514:
	pushq	%rbp
	.seh_pushreg	%rbp
	movq	%rsp, %rbp
	.seh_setframe	%rbp, 0
	subq	$32, %rsp
	.seh_stackalloc	32
	.seh_endprologue
	movq	%rcx, 16(%rbp)
	movq	%rdx, 24(%rbp)
	movq	%r8, 32(%rbp)
	movq	32(%rbp), %rax
	leaq	0(,%rax,4), %rdx
	movq	24(%rbp), %rax
	movq	%rax, %rcx
	call	_ZdlPvy
	nop
	addq	$32, %rsp
	popq	%rbp
	ret
	.seh_endproc
	.section	.text$_ZNSt15__new_allocatorIiE8allocateEyPKv,"x"
	.linkonce discard
	.align 2
	.globl	_ZNSt15__new_allocatorIiE8allocateEyPKv
	.def	_ZNSt15__new_allocatorIiE8allocateEyPKv;	.scl	2;	.type	32;	.endef
	.seh_proc	_ZNSt15__new_allocatorIiE8allocateEyPKv
_ZNSt15__new_allocatorIiE8allocateEyPKv:
.LFB4516:
	pushq	%rbp
	.seh_pushreg	%rbp
	movq	%rsp, %rbp
	.seh_setframe	%rbp, 0
	subq	$48, %rsp
	.seh_stackalloc	48
	.seh_endprologue
	movq	%rcx, 16(%rbp)
	movq	%rdx, 24(%rbp)
	movq	%r8, 32(%rbp)
	movq	16(%rbp), %rax
	movq	%rax, -8(%rbp)
	movabsq	$2305843009213693951, %rax
	cmpq	24(%rbp), %rax
	setb	%al
	movzbl	%al, %eax
	testl	%eax, %eax
	setne	%al
	testb	%al, %al
	je	.L176
	movabsq	$4611686018427387903, %rax
	cmpq	24(%rbp), %rax
	jnb	.L177
	call	_ZSt28__throw_bad_array_new_lengthv
.L177:
	call	_ZSt17__throw_bad_allocv
.L176:
	movq	24(%rbp), %rax
	salq	$2, %rax
	movq	%rax, %rcx
	call	_Znwy
	nop
	addq	$48, %rsp
	popq	%rbp
	ret
	.seh_endproc
	.section	.text$_ZNSt7__equalILb1EE5equalIiEEbPKT_S4_S4_,"x"
	.linkonce discard
	.globl	_ZNSt7__equalILb1EE5equalIiEEbPKT_S4_S4_
	.def	_ZNSt7__equalILb1EE5equalIiEEbPKT_S4_S4_;	.scl	2;	.type	32;	.endef
	.seh_proc	_ZNSt7__equalILb1EE5equalIiEEbPKT_S4_S4_
_ZNSt7__equalILb1EE5equalIiEEbPKT_S4_S4_:
.LFB4520:
	pushq	%rbp
	.seh_pushreg	%rbp
	movq	%rsp, %rbp
	.seh_setframe	%rbp, 0
	subq	$48, %rsp
	.seh_stackalloc	48
	.seh_endprologue
	movq	%rcx, 16(%rbp)
	movq	%rdx, 24(%rbp)
	movq	%r8, 32(%rbp)
	movq	24(%rbp), %rax
	subq	16(%rbp), %rax
	sarq	$2, %rax
	movq	%rax, -8(%rbp)
	cmpq	$0, -8(%rbp)
	je	.L180
	movq	-8(%rbp), %rcx
	movq	32(%rbp), %rdx
	movq	16(%rbp), %rax
	movq	%rcx, %r8
	movq	%rax, %rcx
	call	_ZSt8__memcmpIiiEiPKT_PKT0_y
	testl	%eax, %eax
	sete	%al
	jmp	.L181
.L180:
	movl	$1, %eax
.L181:
	addq	$48, %rsp
	popq	%rbp
	ret
	.seh_endproc
	.section	.text$_ZNSt15__new_allocatorIcE8allocateEyPKv,"x"
	.linkonce discard
	.align 2
	.globl	_ZNSt15__new_allocatorIcE8allocateEyPKv
	.def	_ZNSt15__new_allocatorIcE8allocateEyPKv;	.scl	2;	.type	32;	.endef
	.seh_proc	_ZNSt15__new_allocatorIcE8allocateEyPKv
_ZNSt15__new_allocatorIcE8allocateEyPKv:
.LFB4521:
	pushq	%rbp
	.seh_pushreg	%rbp
	movq	%rsp, %rbp
	.seh_setframe	%rbp, 0
	subq	$48, %rsp
	.seh_stackalloc	48
	.seh_endprologue
	movq	%rcx, 16(%rbp)
	movq	%rdx, 24(%rbp)
	movq	%r8, 32(%rbp)
	movq	16(%rbp), %rax
	movq	%rax, -8(%rbp)
	movabsq	$9223372036854775807, %rax
	cmpq	24(%rbp), %rax
	setb	%al
	movzbl	%al, %eax
	testl	%eax, %eax
	setne	%al
	testb	%al, %al
	je	.L184
	call	_ZSt17__throw_bad_allocv
.L184:
	movq	24(%rbp), %rax
	movq	%rax, %rcx
	call	_Znwy
	nop
	addq	$48, %rsp
	popq	%rbp
	ret
	.seh_endproc
	.section	.text$_ZSt8__memcmpIiiEiPKT_PKT0_y,"x"
	.linkonce discard
	.globl	_ZSt8__memcmpIiiEiPKT_PKT0_y
	.def	_ZSt8__memcmpIiiEiPKT_PKT0_y;	.scl	2;	.type	32;	.endef
	.seh_proc	_ZSt8__memcmpIiiEiPKT_PKT0_y
_ZSt8__memcmpIiiEiPKT_PKT0_y:
.LFB4538:
	pushq	%rbp
	.seh_pushreg	%rbp
	movq	%rsp, %rbp
	.seh_setframe	%rbp, 0
	subq	$32, %rsp
	.seh_stackalloc	32
	.seh_endprologue
	movq	%rcx, 16(%rbp)
	movq	%rdx, 24(%rbp)
	movq	%r8, 32(%rbp)
	movq	32(%rbp), %rax
	leaq	0(,%rax,4), %rcx
	movq	24(%rbp), %rdx
	movq	16(%rbp), %rax
	movq	%rcx, %r8
	movq	%rax, %rcx
	call	memcmp
	addq	$32, %rsp
	popq	%rbp
	ret
	.seh_endproc
	.section .rdata,"dr"
	.align 16
C.0.0:
	.long	1
	.long	10
	.long	3
	.long	55
	.long	10
	.long	23
	.long	33
	.def	__gxx_personality_seh0;	.scl	2;	.type	32;	.endef
	.def	__main;	.scl	2;	.type	32;	.endef
	.ident	"GCC: (Rev8, Built by MSYS2 project) 15.2.0"
	.def	strlen;	.scl	2;	.type	32;	.endef
	.def	memcpy;	.scl	2;	.type	32;	.endef
	.def	_ZNSt14basic_ofstreamIcSt11char_traitsIcEEC1EPKcSt13_Ios_Openmode;	.scl	2;	.type	32;	.endef
	.def	_ZNSt7__cxx1118basic_stringstreamIcSt11char_traitsIcESaIcEEC1ERKNS_12basic_stringIcS2_S3_EESt13_Ios_Openmode;	.scl	2;	.type	32;	.endef
	.def	_Z16list_with_changeRSiRSo;	.scl	2;	.type	32;	.endef
	.def	_ZNSo5flushEv;	.scl	2;	.type	32;	.endef
	.def	_ZNSt14basic_ofstreamIcSt11char_traitsIcEE5closeEv;	.scl	2;	.type	32;	.endef
	.def	_ZNSt7__cxx1118basic_stringstreamIcSt11char_traitsIcESaIcEED1Ev;	.scl	2;	.type	32;	.endef
	.def	_ZNSt14basic_ofstreamIcSt11char_traitsIcEED1Ev;	.scl	2;	.type	32;	.endef
	.def	_Unwind_Resume;	.scl	2;	.type	32;	.endef
	.def	_ZSt19__throw_logic_errorPKc;	.scl	2;	.type	32;	.endef
	.def	_ZSt20__throw_length_errorPKc;	.scl	2;	.type	32;	.endef
	.def	_ZdlPvy;	.scl	2;	.type	32;	.endef
	.def	_ZSt28__throw_bad_array_new_lengthv;	.scl	2;	.type	32;	.endef
	.def	_ZSt17__throw_bad_allocv;	.scl	2;	.type	32;	.endef
	.def	_Znwy;	.scl	2;	.type	32;	.endef
	.def	memcmp;	.scl	2;	.type	32;	.endef
